(lp0
(dp1
S'sepalLength'
p2
cnumpy.core.multiarray
scalar
p3
(cnumpy
dtype
p4
(S'S3'
p5
I0
I1
tp6
Rp7
(I3
S'|'
p8
NNNI3
I1
I0
tp9
bS'5.1'
p10
tp11
Rp12
sS'petalWidth'
p13
g3
(g4
(S'S3'
p14
I0
I1
tp15
Rp16
(I3
S'|'
p17
NNNI3
I1
I0
tp18
bS'0.2'
p19
tp20
Rp21
sS'sepalWidth'
p22
g3
(g4
(S'S3'
p23
I0
I1
tp24
Rp25
(I3
S'|'
p26
NNNI3
I1
I0
tp27
bS'3.5'
p28
tp29
Rp30
sS'petalLength'
p31
g3
(g4
(S'S3'
p32
I0
I1
tp33
Rp34
(I3
S'|'
p35
NNNI3
I1
I0
tp36
bS'1.4'
p37
tp38
Rp39
sS'species'
p40
g3
(g4
(S'S6'
p41
I0
I1
tp42
Rp43
(I3
S'|'
p44
NNNI6
I1
I0
tp45
bS'setosa'
p46
tp47
Rp48
sa(dp49
g2
g3
(g4
(S'S3'
p50
I0
I1
tp51
Rp52
(I3
S'|'
p53
NNNI3
I1
I0
tp54
bS'4.9'
p55
tp56
Rp57
sg13
g3
(g4
(S'S3'
p58
I0
I1
tp59
Rp60
(I3
S'|'
p61
NNNI3
I1
I0
tp62
bS'0.2'
p63
tp64
Rp65
sg22
g3
(g4
(S'S3'
p66
I0
I1
tp67
Rp68
(I3
S'|'
p69
NNNI3
I1
I0
tp70
bS'3.0'
p71
tp72
Rp73
sg31
g3
(g4
(S'S3'
p74
I0
I1
tp75
Rp76
(I3
S'|'
p77
NNNI3
I1
I0
tp78
bS'1.4'
p79
tp80
Rp81
sg40
g3
(g4
(S'S6'
p82
I0
I1
tp83
Rp84
(I3
S'|'
p85
NNNI6
I1
I0
tp86
bS'setosa'
p87
tp88
Rp89
sa(dp90
g2
g3
(g4
(S'S3'
p91
I0
I1
tp92
Rp93
(I3
S'|'
p94
NNNI3
I1
I0
tp95
bS'4.7'
p96
tp97
Rp98
sg13
g3
(g4
(S'S3'
p99
I0
I1
tp100
Rp101
(I3
S'|'
p102
NNNI3
I1
I0
tp103
bS'0.2'
p104
tp105
Rp106
sg22
g3
(g4
(S'S3'
p107
I0
I1
tp108
Rp109
(I3
S'|'
p110
NNNI3
I1
I0
tp111
bS'3.2'
p112
tp113
Rp114
sg31
g3
(g4
(S'S3'
p115
I0
I1
tp116
Rp117
(I3
S'|'
p118
NNNI3
I1
I0
tp119
bS'1.3'
p120
tp121
Rp122
sg40
g3
(g4
(S'S6'
p123
I0
I1
tp124
Rp125
(I3
S'|'
p126
NNNI6
I1
I0
tp127
bS'setosa'
p128
tp129
Rp130
sa(dp131
g2
g3
(g4
(S'S3'
p132
I0
I1
tp133
Rp134
(I3
S'|'
p135
NNNI3
I1
I0
tp136
bS'4.6'
p137
tp138
Rp139
sg13
g3
(g4
(S'S3'
p140
I0
I1
tp141
Rp142
(I3
S'|'
p143
NNNI3
I1
I0
tp144
bS'0.2'
p145
tp146
Rp147
sg22
g3
(g4
(S'S3'
p148
I0
I1
tp149
Rp150
(I3
S'|'
p151
NNNI3
I1
I0
tp152
bS'3.1'
p153
tp154
Rp155
sg31
g3
(g4
(S'S3'
p156
I0
I1
tp157
Rp158
(I3
S'|'
p159
NNNI3
I1
I0
tp160
bS'1.5'
p161
tp162
Rp163
sg40
g3
(g4
(S'S6'
p164
I0
I1
tp165
Rp166
(I3
S'|'
p167
NNNI6
I1
I0
tp168
bS'setosa'
p169
tp170
Rp171
sa(dp172
g2
g3
(g4
(S'S3'
p173
I0
I1
tp174
Rp175
(I3
S'|'
p176
NNNI3
I1
I0
tp177
bS'5.0'
p178
tp179
Rp180
sg13
g3
(g4
(S'S3'
p181
I0
I1
tp182
Rp183
(I3
S'|'
p184
NNNI3
I1
I0
tp185
bS'0.2'
p186
tp187
Rp188
sg22
g3
(g4
(S'S3'
p189
I0
I1
tp190
Rp191
(I3
S'|'
p192
NNNI3
I1
I0
tp193
bS'3.6'
p194
tp195
Rp196
sg31
g3
(g4
(S'S3'
p197
I0
I1
tp198
Rp199
(I3
S'|'
p200
NNNI3
I1
I0
tp201
bS'1.4'
p202
tp203
Rp204
sg40
g3
(g4
(S'S6'
p205
I0
I1
tp206
Rp207
(I3
S'|'
p208
NNNI6
I1
I0
tp209
bS'setosa'
p210
tp211
Rp212
sa(dp213
g2
g3
(g4
(S'S3'
p214
I0
I1
tp215
Rp216
(I3
S'|'
p217
NNNI3
I1
I0
tp218
bS'5.4'
p219
tp220
Rp221
sg13
g3
(g4
(S'S3'
p222
I0
I1
tp223
Rp224
(I3
S'|'
p225
NNNI3
I1
I0
tp226
bS'0.4'
p227
tp228
Rp229
sg22
g3
(g4
(S'S3'
p230
I0
I1
tp231
Rp232
(I3
S'|'
p233
NNNI3
I1
I0
tp234
bS'3.9'
p235
tp236
Rp237
sg31
g3
(g4
(S'S3'
p238
I0
I1
tp239
Rp240
(I3
S'|'
p241
NNNI3
I1
I0
tp242
bS'1.7'
p243
tp244
Rp245
sg40
g3
(g4
(S'S6'
p246
I0
I1
tp247
Rp248
(I3
S'|'
p249
NNNI6
I1
I0
tp250
bS'setosa'
p251
tp252
Rp253
sa(dp254
g2
g3
(g4
(S'S3'
p255
I0
I1
tp256
Rp257
(I3
S'|'
p258
NNNI3
I1
I0
tp259
bS'4.6'
p260
tp261
Rp262
sg13
g3
(g4
(S'S3'
p263
I0
I1
tp264
Rp265
(I3
S'|'
p266
NNNI3
I1
I0
tp267
bS'0.3'
p268
tp269
Rp270
sg22
g3
(g4
(S'S3'
p271
I0
I1
tp272
Rp273
(I3
S'|'
p274
NNNI3
I1
I0
tp275
bS'3.4'
p276
tp277
Rp278
sg31
g3
(g4
(S'S3'
p279
I0
I1
tp280
Rp281
(I3
S'|'
p282
NNNI3
I1
I0
tp283
bS'1.4'
p284
tp285
Rp286
sg40
g3
(g4
(S'S6'
p287
I0
I1
tp288
Rp289
(I3
S'|'
p290
NNNI6
I1
I0
tp291
bS'setosa'
p292
tp293
Rp294
sa(dp295
g2
g3
(g4
(S'S3'
p296
I0
I1
tp297
Rp298
(I3
S'|'
p299
NNNI3
I1
I0
tp300
bS'5.0'
p301
tp302
Rp303
sg13
g3
(g4
(S'S3'
p304
I0
I1
tp305
Rp306
(I3
S'|'
p307
NNNI3
I1
I0
tp308
bS'0.2'
p309
tp310
Rp311
sg22
g3
(g4
(S'S3'
p312
I0
I1
tp313
Rp314
(I3
S'|'
p315
NNNI3
I1
I0
tp316
bS'3.4'
p317
tp318
Rp319
sg31
g3
(g4
(S'S3'
p320
I0
I1
tp321
Rp322
(I3
S'|'
p323
NNNI3
I1
I0
tp324
bS'1.5'
p325
tp326
Rp327
sg40
g3
(g4
(S'S6'
p328
I0
I1
tp329
Rp330
(I3
S'|'
p331
NNNI6
I1
I0
tp332
bS'setosa'
p333
tp334
Rp335
sa(dp336
g2
g3
(g4
(S'S3'
p337
I0
I1
tp338
Rp339
(I3
S'|'
p340
NNNI3
I1
I0
tp341
bS'4.4'
p342
tp343
Rp344
sg13
g3
(g4
(S'S3'
p345
I0
I1
tp346
Rp347
(I3
S'|'
p348
NNNI3
I1
I0
tp349
bS'0.2'
p350
tp351
Rp352
sg22
g3
(g4
(S'S3'
p353
I0
I1
tp354
Rp355
(I3
S'|'
p356
NNNI3
I1
I0
tp357
bS'2.9'
p358
tp359
Rp360
sg31
g3
(g4
(S'S3'
p361
I0
I1
tp362
Rp363
(I3
S'|'
p364
NNNI3
I1
I0
tp365
bS'1.4'
p366
tp367
Rp368
sg40
g3
(g4
(S'S6'
p369
I0
I1
tp370
Rp371
(I3
S'|'
p372
NNNI6
I1
I0
tp373
bS'setosa'
p374
tp375
Rp376
sa(dp377
g2
g3
(g4
(S'S3'
p378
I0
I1
tp379
Rp380
(I3
S'|'
p381
NNNI3
I1
I0
tp382
bS'4.9'
p383
tp384
Rp385
sg13
g3
(g4
(S'S3'
p386
I0
I1
tp387
Rp388
(I3
S'|'
p389
NNNI3
I1
I0
tp390
bS'0.1'
p391
tp392
Rp393
sg22
g3
(g4
(S'S3'
p394
I0
I1
tp395
Rp396
(I3
S'|'
p397
NNNI3
I1
I0
tp398
bS'3.1'
p399
tp400
Rp401
sg31
g3
(g4
(S'S3'
p402
I0
I1
tp403
Rp404
(I3
S'|'
p405
NNNI3
I1
I0
tp406
bS'1.5'
p407
tp408
Rp409
sg40
g3
(g4
(S'S6'
p410
I0
I1
tp411
Rp412
(I3
S'|'
p413
NNNI6
I1
I0
tp414
bS'setosa'
p415
tp416
Rp417
sa(dp418
g2
g3
(g4
(S'S3'
p419
I0
I1
tp420
Rp421
(I3
S'|'
p422
NNNI3
I1
I0
tp423
bS'5.4'
p424
tp425
Rp426
sg13
g3
(g4
(S'S3'
p427
I0
I1
tp428
Rp429
(I3
S'|'
p430
NNNI3
I1
I0
tp431
bS'0.2'
p432
tp433
Rp434
sg22
g3
(g4
(S'S3'
p435
I0
I1
tp436
Rp437
(I3
S'|'
p438
NNNI3
I1
I0
tp439
bS'3.7'
p440
tp441
Rp442
sg31
g3
(g4
(S'S3'
p443
I0
I1
tp444
Rp445
(I3
S'|'
p446
NNNI3
I1
I0
tp447
bS'1.5'
p448
tp449
Rp450
sg40
g3
(g4
(S'S6'
p451
I0
I1
tp452
Rp453
(I3
S'|'
p454
NNNI6
I1
I0
tp455
bS'setosa'
p456
tp457
Rp458
sa(dp459
g2
g3
(g4
(S'S3'
p460
I0
I1
tp461
Rp462
(I3
S'|'
p463
NNNI3
I1
I0
tp464
bS'4.8'
p465
tp466
Rp467
sg13
g3
(g4
(S'S3'
p468
I0
I1
tp469
Rp470
(I3
S'|'
p471
NNNI3
I1
I0
tp472
bS'0.2'
p473
tp474
Rp475
sg22
g3
(g4
(S'S3'
p476
I0
I1
tp477
Rp478
(I3
S'|'
p479
NNNI3
I1
I0
tp480
bS'3.4'
p481
tp482
Rp483
sg31
g3
(g4
(S'S3'
p484
I0
I1
tp485
Rp486
(I3
S'|'
p487
NNNI3
I1
I0
tp488
bS'1.6'
p489
tp490
Rp491
sg40
g3
(g4
(S'S6'
p492
I0
I1
tp493
Rp494
(I3
S'|'
p495
NNNI6
I1
I0
tp496
bS'setosa'
p497
tp498
Rp499
sa(dp500
g2
g3
(g4
(S'S3'
p501
I0
I1
tp502
Rp503
(I3
S'|'
p504
NNNI3
I1
I0
tp505
bS'4.8'
p506
tp507
Rp508
sg13
g3
(g4
(S'S3'
p509
I0
I1
tp510
Rp511
(I3
S'|'
p512
NNNI3
I1
I0
tp513
bS'0.1'
p514
tp515
Rp516
sg22
g3
(g4
(S'S3'
p517
I0
I1
tp518
Rp519
(I3
S'|'
p520
NNNI3
I1
I0
tp521
bS'3.0'
p522
tp523
Rp524
sg31
g3
(g4
(S'S3'
p525
I0
I1
tp526
Rp527
(I3
S'|'
p528
NNNI3
I1
I0
tp529
bS'1.4'
p530
tp531
Rp532
sg40
g3
(g4
(S'S6'
p533
I0
I1
tp534
Rp535
(I3
S'|'
p536
NNNI6
I1
I0
tp537
bS'setosa'
p538
tp539
Rp540
sa(dp541
g2
g3
(g4
(S'S3'
p542
I0
I1
tp543
Rp544
(I3
S'|'
p545
NNNI3
I1
I0
tp546
bS'4.3'
p547
tp548
Rp549
sg13
g3
(g4
(S'S3'
p550
I0
I1
tp551
Rp552
(I3
S'|'
p553
NNNI3
I1
I0
tp554
bS'0.1'
p555
tp556
Rp557
sg22
g3
(g4
(S'S3'
p558
I0
I1
tp559
Rp560
(I3
S'|'
p561
NNNI3
I1
I0
tp562
bS'3.0'
p563
tp564
Rp565
sg31
g3
(g4
(S'S3'
p566
I0
I1
tp567
Rp568
(I3
S'|'
p569
NNNI3
I1
I0
tp570
bS'1.1'
p571
tp572
Rp573
sg40
g3
(g4
(S'S6'
p574
I0
I1
tp575
Rp576
(I3
S'|'
p577
NNNI6
I1
I0
tp578
bS'setosa'
p579
tp580
Rp581
sa(dp582
g2
g3
(g4
(S'S3'
p583
I0
I1
tp584
Rp585
(I3
S'|'
p586
NNNI3
I1
I0
tp587
bS'5.8'
p588
tp589
Rp590
sg13
g3
(g4
(S'S3'
p591
I0
I1
tp592
Rp593
(I3
S'|'
p594
NNNI3
I1
I0
tp595
bS'0.2'
p596
tp597
Rp598
sg22
g3
(g4
(S'S3'
p599
I0
I1
tp600
Rp601
(I3
S'|'
p602
NNNI3
I1
I0
tp603
bS'4.0'
p604
tp605
Rp606
sg31
g3
(g4
(S'S3'
p607
I0
I1
tp608
Rp609
(I3
S'|'
p610
NNNI3
I1
I0
tp611
bS'1.2'
p612
tp613
Rp614
sg40
g3
(g4
(S'S6'
p615
I0
I1
tp616
Rp617
(I3
S'|'
p618
NNNI6
I1
I0
tp619
bS'setosa'
p620
tp621
Rp622
sa(dp623
g2
g3
(g4
(S'S3'
p624
I0
I1
tp625
Rp626
(I3
S'|'
p627
NNNI3
I1
I0
tp628
bS'5.7'
p629
tp630
Rp631
sg13
g3
(g4
(S'S3'
p632
I0
I1
tp633
Rp634
(I3
S'|'
p635
NNNI3
I1
I0
tp636
bS'0.4'
p637
tp638
Rp639
sg22
g3
(g4
(S'S3'
p640
I0
I1
tp641
Rp642
(I3
S'|'
p643
NNNI3
I1
I0
tp644
bS'4.4'
p645
tp646
Rp647
sg31
g3
(g4
(S'S3'
p648
I0
I1
tp649
Rp650
(I3
S'|'
p651
NNNI3
I1
I0
tp652
bS'1.5'
p653
tp654
Rp655
sg40
g3
(g4
(S'S6'
p656
I0
I1
tp657
Rp658
(I3
S'|'
p659
NNNI6
I1
I0
tp660
bS'setosa'
p661
tp662
Rp663
sa(dp664
g2
g3
(g4
(S'S3'
p665
I0
I1
tp666
Rp667
(I3
S'|'
p668
NNNI3
I1
I0
tp669
bS'5.4'
p670
tp671
Rp672
sg13
g3
(g4
(S'S3'
p673
I0
I1
tp674
Rp675
(I3
S'|'
p676
NNNI3
I1
I0
tp677
bS'0.4'
p678
tp679
Rp680
sg22
g3
(g4
(S'S3'
p681
I0
I1
tp682
Rp683
(I3
S'|'
p684
NNNI3
I1
I0
tp685
bS'3.9'
p686
tp687
Rp688
sg31
g3
(g4
(S'S3'
p689
I0
I1
tp690
Rp691
(I3
S'|'
p692
NNNI3
I1
I0
tp693
bS'1.3'
p694
tp695
Rp696
sg40
g3
(g4
(S'S6'
p697
I0
I1
tp698
Rp699
(I3
S'|'
p700
NNNI6
I1
I0
tp701
bS'setosa'
p702
tp703
Rp704
sa(dp705
g2
g3
(g4
(S'S3'
p706
I0
I1
tp707
Rp708
(I3
S'|'
p709
NNNI3
I1
I0
tp710
bS'5.1'
p711
tp712
Rp713
sg13
g3
(g4
(S'S3'
p714
I0
I1
tp715
Rp716
(I3
S'|'
p717
NNNI3
I1
I0
tp718
bS'0.3'
p719
tp720
Rp721
sg22
g3
(g4
(S'S3'
p722
I0
I1
tp723
Rp724
(I3
S'|'
p725
NNNI3
I1
I0
tp726
bS'3.5'
p727
tp728
Rp729
sg31
g3
(g4
(S'S3'
p730
I0
I1
tp731
Rp732
(I3
S'|'
p733
NNNI3
I1
I0
tp734
bS'1.4'
p735
tp736
Rp737
sg40
g3
(g4
(S'S6'
p738
I0
I1
tp739
Rp740
(I3
S'|'
p741
NNNI6
I1
I0
tp742
bS'setosa'
p743
tp744
Rp745
sa(dp746
g2
g3
(g4
(S'S3'
p747
I0
I1
tp748
Rp749
(I3
S'|'
p750
NNNI3
I1
I0
tp751
bS'5.7'
p752
tp753
Rp754
sg13
g3
(g4
(S'S3'
p755
I0
I1
tp756
Rp757
(I3
S'|'
p758
NNNI3
I1
I0
tp759
bS'0.3'
p760
tp761
Rp762
sg22
g3
(g4
(S'S3'
p763
I0
I1
tp764
Rp765
(I3
S'|'
p766
NNNI3
I1
I0
tp767
bS'3.8'
p768
tp769
Rp770
sg31
g3
(g4
(S'S3'
p771
I0
I1
tp772
Rp773
(I3
S'|'
p774
NNNI3
I1
I0
tp775
bS'1.7'
p776
tp777
Rp778
sg40
g3
(g4
(S'S6'
p779
I0
I1
tp780
Rp781
(I3
S'|'
p782
NNNI6
I1
I0
tp783
bS'setosa'
p784
tp785
Rp786
sa(dp787
g2
g3
(g4
(S'S3'
p788
I0
I1
tp789
Rp790
(I3
S'|'
p791
NNNI3
I1
I0
tp792
bS'5.1'
p793
tp794
Rp795
sg13
g3
(g4
(S'S3'
p796
I0
I1
tp797
Rp798
(I3
S'|'
p799
NNNI3
I1
I0
tp800
bS'0.3'
p801
tp802
Rp803
sg22
g3
(g4
(S'S3'
p804
I0
I1
tp805
Rp806
(I3
S'|'
p807
NNNI3
I1
I0
tp808
bS'3.8'
p809
tp810
Rp811
sg31
g3
(g4
(S'S3'
p812
I0
I1
tp813
Rp814
(I3
S'|'
p815
NNNI3
I1
I0
tp816
bS'1.5'
p817
tp818
Rp819
sg40
g3
(g4
(S'S6'
p820
I0
I1
tp821
Rp822
(I3
S'|'
p823
NNNI6
I1
I0
tp824
bS'setosa'
p825
tp826
Rp827
sa(dp828
g2
g3
(g4
(S'S3'
p829
I0
I1
tp830
Rp831
(I3
S'|'
p832
NNNI3
I1
I0
tp833
bS'5.4'
p834
tp835
Rp836
sg13
g3
(g4
(S'S3'
p837
I0
I1
tp838
Rp839
(I3
S'|'
p840
NNNI3
I1
I0
tp841
bS'0.2'
p842
tp843
Rp844
sg22
g3
(g4
(S'S3'
p845
I0
I1
tp846
Rp847
(I3
S'|'
p848
NNNI3
I1
I0
tp849
bS'3.4'
p850
tp851
Rp852
sg31
g3
(g4
(S'S3'
p853
I0
I1
tp854
Rp855
(I3
S'|'
p856
NNNI3
I1
I0
tp857
bS'1.7'
p858
tp859
Rp860
sg40
g3
(g4
(S'S6'
p861
I0
I1
tp862
Rp863
(I3
S'|'
p864
NNNI6
I1
I0
tp865
bS'setosa'
p866
tp867
Rp868
sa(dp869
g2
g3
(g4
(S'S3'
p870
I0
I1
tp871
Rp872
(I3
S'|'
p873
NNNI3
I1
I0
tp874
bS'5.1'
p875
tp876
Rp877
sg13
g3
(g4
(S'S3'
p878
I0
I1
tp879
Rp880
(I3
S'|'
p881
NNNI3
I1
I0
tp882
bS'0.4'
p883
tp884
Rp885
sg22
g3
(g4
(S'S3'
p886
I0
I1
tp887
Rp888
(I3
S'|'
p889
NNNI3
I1
I0
tp890
bS'3.7'
p891
tp892
Rp893
sg31
g3
(g4
(S'S3'
p894
I0
I1
tp895
Rp896
(I3
S'|'
p897
NNNI3
I1
I0
tp898
bS'1.5'
p899
tp900
Rp901
sg40
g3
(g4
(S'S6'
p902
I0
I1
tp903
Rp904
(I3
S'|'
p905
NNNI6
I1
I0
tp906
bS'setosa'
p907
tp908
Rp909
sa(dp910
g2
g3
(g4
(S'S3'
p911
I0
I1
tp912
Rp913
(I3
S'|'
p914
NNNI3
I1
I0
tp915
bS'4.6'
p916
tp917
Rp918
sg13
g3
(g4
(S'S3'
p919
I0
I1
tp920
Rp921
(I3
S'|'
p922
NNNI3
I1
I0
tp923
bS'0.2'
p924
tp925
Rp926
sg22
g3
(g4
(S'S3'
p927
I0
I1
tp928
Rp929
(I3
S'|'
p930
NNNI3
I1
I0
tp931
bS'3.6'
p932
tp933
Rp934
sg31
g3
(g4
(S'S3'
p935
I0
I1
tp936
Rp937
(I3
S'|'
p938
NNNI3
I1
I0
tp939
bS'1.0'
p940
tp941
Rp942
sg40
g3
(g4
(S'S6'
p943
I0
I1
tp944
Rp945
(I3
S'|'
p946
NNNI6
I1
I0
tp947
bS'setosa'
p948
tp949
Rp950
sa(dp951
g2
g3
(g4
(S'S3'
p952
I0
I1
tp953
Rp954
(I3
S'|'
p955
NNNI3
I1
I0
tp956
bS'5.1'
p957
tp958
Rp959
sg13
g3
(g4
(S'S3'
p960
I0
I1
tp961
Rp962
(I3
S'|'
p963
NNNI3
I1
I0
tp964
bS'0.5'
p965
tp966
Rp967
sg22
g3
(g4
(S'S3'
p968
I0
I1
tp969
Rp970
(I3
S'|'
p971
NNNI3
I1
I0
tp972
bS'3.3'
p973
tp974
Rp975
sg31
g3
(g4
(S'S3'
p976
I0
I1
tp977
Rp978
(I3
S'|'
p979
NNNI3
I1
I0
tp980
bS'1.7'
p981
tp982
Rp983
sg40
g3
(g4
(S'S6'
p984
I0
I1
tp985
Rp986
(I3
S'|'
p987
NNNI6
I1
I0
tp988
bS'setosa'
p989
tp990
Rp991
sa(dp992
g2
g3
(g4
(S'S3'
p993
I0
I1
tp994
Rp995
(I3
S'|'
p996
NNNI3
I1
I0
tp997
bS'4.8'
p998
tp999
Rp1000
sg13
g3
(g4
(S'S3'
p1001
I0
I1
tp1002
Rp1003
(I3
S'|'
p1004
NNNI3
I1
I0
tp1005
bS'0.2'
p1006
tp1007
Rp1008
sg22
g3
(g4
(S'S3'
p1009
I0
I1
tp1010
Rp1011
(I3
S'|'
p1012
NNNI3
I1
I0
tp1013
bS'3.4'
p1014
tp1015
Rp1016
sg31
g3
(g4
(S'S3'
p1017
I0
I1
tp1018
Rp1019
(I3
S'|'
p1020
NNNI3
I1
I0
tp1021
bS'1.9'
p1022
tp1023
Rp1024
sg40
g3
(g4
(S'S6'
p1025
I0
I1
tp1026
Rp1027
(I3
S'|'
p1028
NNNI6
I1
I0
tp1029
bS'setosa'
p1030
tp1031
Rp1032
sa(dp1033
g2
g3
(g4
(S'S3'
p1034
I0
I1
tp1035
Rp1036
(I3
S'|'
p1037
NNNI3
I1
I0
tp1038
bS'5.0'
p1039
tp1040
Rp1041
sg13
g3
(g4
(S'S3'
p1042
I0
I1
tp1043
Rp1044
(I3
S'|'
p1045
NNNI3
I1
I0
tp1046
bS'0.2'
p1047
tp1048
Rp1049
sg22
g3
(g4
(S'S3'
p1050
I0
I1
tp1051
Rp1052
(I3
S'|'
p1053
NNNI3
I1
I0
tp1054
bS'3.0'
p1055
tp1056
Rp1057
sg31
g3
(g4
(S'S3'
p1058
I0
I1
tp1059
Rp1060
(I3
S'|'
p1061
NNNI3
I1
I0
tp1062
bS'1.6'
p1063
tp1064
Rp1065
sg40
g3
(g4
(S'S6'
p1066
I0
I1
tp1067
Rp1068
(I3
S'|'
p1069
NNNI6
I1
I0
tp1070
bS'setosa'
p1071
tp1072
Rp1073
sa(dp1074
g2
g3
(g4
(S'S3'
p1075
I0
I1
tp1076
Rp1077
(I3
S'|'
p1078
NNNI3
I1
I0
tp1079
bS'5.0'
p1080
tp1081
Rp1082
sg13
g3
(g4
(S'S3'
p1083
I0
I1
tp1084
Rp1085
(I3
S'|'
p1086
NNNI3
I1
I0
tp1087
bS'0.4'
p1088
tp1089
Rp1090
sg22
g3
(g4
(S'S3'
p1091
I0
I1
tp1092
Rp1093
(I3
S'|'
p1094
NNNI3
I1
I0
tp1095
bS'3.4'
p1096
tp1097
Rp1098
sg31
g3
(g4
(S'S3'
p1099
I0
I1
tp1100
Rp1101
(I3
S'|'
p1102
NNNI3
I1
I0
tp1103
bS'1.6'
p1104
tp1105
Rp1106
sg40
g3
(g4
(S'S6'
p1107
I0
I1
tp1108
Rp1109
(I3
S'|'
p1110
NNNI6
I1
I0
tp1111
bS'setosa'
p1112
tp1113
Rp1114
sa(dp1115
g2
g3
(g4
(S'S3'
p1116
I0
I1
tp1117
Rp1118
(I3
S'|'
p1119
NNNI3
I1
I0
tp1120
bS'5.2'
p1121
tp1122
Rp1123
sg13
g3
(g4
(S'S3'
p1124
I0
I1
tp1125
Rp1126
(I3
S'|'
p1127
NNNI3
I1
I0
tp1128
bS'0.2'
p1129
tp1130
Rp1131
sg22
g3
(g4
(S'S3'
p1132
I0
I1
tp1133
Rp1134
(I3
S'|'
p1135
NNNI3
I1
I0
tp1136
bS'3.5'
p1137
tp1138
Rp1139
sg31
g3
(g4
(S'S3'
p1140
I0
I1
tp1141
Rp1142
(I3
S'|'
p1143
NNNI3
I1
I0
tp1144
bS'1.5'
p1145
tp1146
Rp1147
sg40
g3
(g4
(S'S6'
p1148
I0
I1
tp1149
Rp1150
(I3
S'|'
p1151
NNNI6
I1
I0
tp1152
bS'setosa'
p1153
tp1154
Rp1155
sa(dp1156
g2
g3
(g4
(S'S3'
p1157
I0
I1
tp1158
Rp1159
(I3
S'|'
p1160
NNNI3
I1
I0
tp1161
bS'5.2'
p1162
tp1163
Rp1164
sg13
g3
(g4
(S'S3'
p1165
I0
I1
tp1166
Rp1167
(I3
S'|'
p1168
NNNI3
I1
I0
tp1169
bS'0.2'
p1170
tp1171
Rp1172
sg22
g3
(g4
(S'S3'
p1173
I0
I1
tp1174
Rp1175
(I3
S'|'
p1176
NNNI3
I1
I0
tp1177
bS'3.4'
p1178
tp1179
Rp1180
sg31
g3
(g4
(S'S3'
p1181
I0
I1
tp1182
Rp1183
(I3
S'|'
p1184
NNNI3
I1
I0
tp1185
bS'1.4'
p1186
tp1187
Rp1188
sg40
g3
(g4
(S'S6'
p1189
I0
I1
tp1190
Rp1191
(I3
S'|'
p1192
NNNI6
I1
I0
tp1193
bS'setosa'
p1194
tp1195
Rp1196
sa(dp1197
g2
g3
(g4
(S'S3'
p1198
I0
I1
tp1199
Rp1200
(I3
S'|'
p1201
NNNI3
I1
I0
tp1202
bS'4.7'
p1203
tp1204
Rp1205
sg13
g3
(g4
(S'S3'
p1206
I0
I1
tp1207
Rp1208
(I3
S'|'
p1209
NNNI3
I1
I0
tp1210
bS'0.2'
p1211
tp1212
Rp1213
sg22
g3
(g4
(S'S3'
p1214
I0
I1
tp1215
Rp1216
(I3
S'|'
p1217
NNNI3
I1
I0
tp1218
bS'3.2'
p1219
tp1220
Rp1221
sg31
g3
(g4
(S'S3'
p1222
I0
I1
tp1223
Rp1224
(I3
S'|'
p1225
NNNI3
I1
I0
tp1226
bS'1.6'
p1227
tp1228
Rp1229
sg40
g3
(g4
(S'S6'
p1230
I0
I1
tp1231
Rp1232
(I3
S'|'
p1233
NNNI6
I1
I0
tp1234
bS'setosa'
p1235
tp1236
Rp1237
sa(dp1238
g2
g3
(g4
(S'S3'
p1239
I0
I1
tp1240
Rp1241
(I3
S'|'
p1242
NNNI3
I1
I0
tp1243
bS'4.8'
p1244
tp1245
Rp1246
sg13
g3
(g4
(S'S3'
p1247
I0
I1
tp1248
Rp1249
(I3
S'|'
p1250
NNNI3
I1
I0
tp1251
bS'0.2'
p1252
tp1253
Rp1254
sg22
g3
(g4
(S'S3'
p1255
I0
I1
tp1256
Rp1257
(I3
S'|'
p1258
NNNI3
I1
I0
tp1259
bS'3.1'
p1260
tp1261
Rp1262
sg31
g3
(g4
(S'S3'
p1263
I0
I1
tp1264
Rp1265
(I3
S'|'
p1266
NNNI3
I1
I0
tp1267
bS'1.6'
p1268
tp1269
Rp1270
sg40
g3
(g4
(S'S6'
p1271
I0
I1
tp1272
Rp1273
(I3
S'|'
p1274
NNNI6
I1
I0
tp1275
bS'setosa'
p1276
tp1277
Rp1278
sa(dp1279
g2
g3
(g4
(S'S3'
p1280
I0
I1
tp1281
Rp1282
(I3
S'|'
p1283
NNNI3
I1
I0
tp1284
bS'5.4'
p1285
tp1286
Rp1287
sg13
g3
(g4
(S'S3'
p1288
I0
I1
tp1289
Rp1290
(I3
S'|'
p1291
NNNI3
I1
I0
tp1292
bS'0.4'
p1293
tp1294
Rp1295
sg22
g3
(g4
(S'S3'
p1296
I0
I1
tp1297
Rp1298
(I3
S'|'
p1299
NNNI3
I1
I0
tp1300
bS'3.4'
p1301
tp1302
Rp1303
sg31
g3
(g4
(S'S3'
p1304
I0
I1
tp1305
Rp1306
(I3
S'|'
p1307
NNNI3
I1
I0
tp1308
bS'1.5'
p1309
tp1310
Rp1311
sg40
g3
(g4
(S'S6'
p1312
I0
I1
tp1313
Rp1314
(I3
S'|'
p1315
NNNI6
I1
I0
tp1316
bS'setosa'
p1317
tp1318
Rp1319
sa(dp1320
g2
g3
(g4
(S'S3'
p1321
I0
I1
tp1322
Rp1323
(I3
S'|'
p1324
NNNI3
I1
I0
tp1325
bS'5.2'
p1326
tp1327
Rp1328
sg13
g3
(g4
(S'S3'
p1329
I0
I1
tp1330
Rp1331
(I3
S'|'
p1332
NNNI3
I1
I0
tp1333
bS'0.1'
p1334
tp1335
Rp1336
sg22
g3
(g4
(S'S3'
p1337
I0
I1
tp1338
Rp1339
(I3
S'|'
p1340
NNNI3
I1
I0
tp1341
bS'4.1'
p1342
tp1343
Rp1344
sg31
g3
(g4
(S'S3'
p1345
I0
I1
tp1346
Rp1347
(I3
S'|'
p1348
NNNI3
I1
I0
tp1349
bS'1.5'
p1350
tp1351
Rp1352
sg40
g3
(g4
(S'S6'
p1353
I0
I1
tp1354
Rp1355
(I3
S'|'
p1356
NNNI6
I1
I0
tp1357
bS'setosa'
p1358
tp1359
Rp1360
sa(dp1361
g2
g3
(g4
(S'S3'
p1362
I0
I1
tp1363
Rp1364
(I3
S'|'
p1365
NNNI3
I1
I0
tp1366
bS'5.5'
p1367
tp1368
Rp1369
sg13
g3
(g4
(S'S3'
p1370
I0
I1
tp1371
Rp1372
(I3
S'|'
p1373
NNNI3
I1
I0
tp1374
bS'0.2'
p1375
tp1376
Rp1377
sg22
g3
(g4
(S'S3'
p1378
I0
I1
tp1379
Rp1380
(I3
S'|'
p1381
NNNI3
I1
I0
tp1382
bS'4.2'
p1383
tp1384
Rp1385
sg31
g3
(g4
(S'S3'
p1386
I0
I1
tp1387
Rp1388
(I3
S'|'
p1389
NNNI3
I1
I0
tp1390
bS'1.4'
p1391
tp1392
Rp1393
sg40
g3
(g4
(S'S6'
p1394
I0
I1
tp1395
Rp1396
(I3
S'|'
p1397
NNNI6
I1
I0
tp1398
bS'setosa'
p1399
tp1400
Rp1401
sa(dp1402
g2
g3
(g4
(S'S3'
p1403
I0
I1
tp1404
Rp1405
(I3
S'|'
p1406
NNNI3
I1
I0
tp1407
bS'4.9'
p1408
tp1409
Rp1410
sg13
g3
(g4
(S'S3'
p1411
I0
I1
tp1412
Rp1413
(I3
S'|'
p1414
NNNI3
I1
I0
tp1415
bS'0.1'
p1416
tp1417
Rp1418
sg22
g3
(g4
(S'S3'
p1419
I0
I1
tp1420
Rp1421
(I3
S'|'
p1422
NNNI3
I1
I0
tp1423
bS'3.1'
p1424
tp1425
Rp1426
sg31
g3
(g4
(S'S3'
p1427
I0
I1
tp1428
Rp1429
(I3
S'|'
p1430
NNNI3
I1
I0
tp1431
bS'1.5'
p1432
tp1433
Rp1434
sg40
g3
(g4
(S'S6'
p1435
I0
I1
tp1436
Rp1437
(I3
S'|'
p1438
NNNI6
I1
I0
tp1439
bS'setosa'
p1440
tp1441
Rp1442
sa(dp1443
g2
g3
(g4
(S'S3'
p1444
I0
I1
tp1445
Rp1446
(I3
S'|'
p1447
NNNI3
I1
I0
tp1448
bS'5.0'
p1449
tp1450
Rp1451
sg13
g3
(g4
(S'S3'
p1452
I0
I1
tp1453
Rp1454
(I3
S'|'
p1455
NNNI3
I1
I0
tp1456
bS'0.2'
p1457
tp1458
Rp1459
sg22
g3
(g4
(S'S3'
p1460
I0
I1
tp1461
Rp1462
(I3
S'|'
p1463
NNNI3
I1
I0
tp1464
bS'3.2'
p1465
tp1466
Rp1467
sg31
g3
(g4
(S'S3'
p1468
I0
I1
tp1469
Rp1470
(I3
S'|'
p1471
NNNI3
I1
I0
tp1472
bS'1.2'
p1473
tp1474
Rp1475
sg40
g3
(g4
(S'S6'
p1476
I0
I1
tp1477
Rp1478
(I3
S'|'
p1479
NNNI6
I1
I0
tp1480
bS'setosa'
p1481
tp1482
Rp1483
sa(dp1484
g2
g3
(g4
(S'S3'
p1485
I0
I1
tp1486
Rp1487
(I3
S'|'
p1488
NNNI3
I1
I0
tp1489
bS'5.5'
p1490
tp1491
Rp1492
sg13
g3
(g4
(S'S3'
p1493
I0
I1
tp1494
Rp1495
(I3
S'|'
p1496
NNNI3
I1
I0
tp1497
bS'0.2'
p1498
tp1499
Rp1500
sg22
g3
(g4
(S'S3'
p1501
I0
I1
tp1502
Rp1503
(I3
S'|'
p1504
NNNI3
I1
I0
tp1505
bS'3.5'
p1506
tp1507
Rp1508
sg31
g3
(g4
(S'S3'
p1509
I0
I1
tp1510
Rp1511
(I3
S'|'
p1512
NNNI3
I1
I0
tp1513
bS'1.3'
p1514
tp1515
Rp1516
sg40
g3
(g4
(S'S6'
p1517
I0
I1
tp1518
Rp1519
(I3
S'|'
p1520
NNNI6
I1
I0
tp1521
bS'setosa'
p1522
tp1523
Rp1524
sa(dp1525
g2
g3
(g4
(S'S3'
p1526
I0
I1
tp1527
Rp1528
(I3
S'|'
p1529
NNNI3
I1
I0
tp1530
bS'4.9'
p1531
tp1532
Rp1533
sg13
g3
(g4
(S'S3'
p1534
I0
I1
tp1535
Rp1536
(I3
S'|'
p1537
NNNI3
I1
I0
tp1538
bS'0.1'
p1539
tp1540
Rp1541
sg22
g3
(g4
(S'S3'
p1542
I0
I1
tp1543
Rp1544
(I3
S'|'
p1545
NNNI3
I1
I0
tp1546
bS'3.1'
p1547
tp1548
Rp1549
sg31
g3
(g4
(S'S3'
p1550
I0
I1
tp1551
Rp1552
(I3
S'|'
p1553
NNNI3
I1
I0
tp1554
bS'1.5'
p1555
tp1556
Rp1557
sg40
g3
(g4
(S'S6'
p1558
I0
I1
tp1559
Rp1560
(I3
S'|'
p1561
NNNI6
I1
I0
tp1562
bS'setosa'
p1563
tp1564
Rp1565
sa(dp1566
g2
g3
(g4
(S'S3'
p1567
I0
I1
tp1568
Rp1569
(I3
S'|'
p1570
NNNI3
I1
I0
tp1571
bS'4.4'
p1572
tp1573
Rp1574
sg13
g3
(g4
(S'S3'
p1575
I0
I1
tp1576
Rp1577
(I3
S'|'
p1578
NNNI3
I1
I0
tp1579
bS'0.2'
p1580
tp1581
Rp1582
sg22
g3
(g4
(S'S3'
p1583
I0
I1
tp1584
Rp1585
(I3
S'|'
p1586
NNNI3
I1
I0
tp1587
bS'3.0'
p1588
tp1589
Rp1590
sg31
g3
(g4
(S'S3'
p1591
I0
I1
tp1592
Rp1593
(I3
S'|'
p1594
NNNI3
I1
I0
tp1595
bS'1.3'
p1596
tp1597
Rp1598
sg40
g3
(g4
(S'S6'
p1599
I0
I1
tp1600
Rp1601
(I3
S'|'
p1602
NNNI6
I1
I0
tp1603
bS'setosa'
p1604
tp1605
Rp1606
sa(dp1607
g2
g3
(g4
(S'S3'
p1608
I0
I1
tp1609
Rp1610
(I3
S'|'
p1611
NNNI3
I1
I0
tp1612
bS'5.1'
p1613
tp1614
Rp1615
sg13
g3
(g4
(S'S3'
p1616
I0
I1
tp1617
Rp1618
(I3
S'|'
p1619
NNNI3
I1
I0
tp1620
bS'0.2'
p1621
tp1622
Rp1623
sg22
g3
(g4
(S'S3'
p1624
I0
I1
tp1625
Rp1626
(I3
S'|'
p1627
NNNI3
I1
I0
tp1628
bS'3.4'
p1629
tp1630
Rp1631
sg31
g3
(g4
(S'S3'
p1632
I0
I1
tp1633
Rp1634
(I3
S'|'
p1635
NNNI3
I1
I0
tp1636
bS'1.5'
p1637
tp1638
Rp1639
sg40
g3
(g4
(S'S6'
p1640
I0
I1
tp1641
Rp1642
(I3
S'|'
p1643
NNNI6
I1
I0
tp1644
bS'setosa'
p1645
tp1646
Rp1647
sa(dp1648
g2
g3
(g4
(S'S3'
p1649
I0
I1
tp1650
Rp1651
(I3
S'|'
p1652
NNNI3
I1
I0
tp1653
bS'5.0'
p1654
tp1655
Rp1656
sg13
g3
(g4
(S'S3'
p1657
I0
I1
tp1658
Rp1659
(I3
S'|'
p1660
NNNI3
I1
I0
tp1661
bS'0.3'
p1662
tp1663
Rp1664
sg22
g3
(g4
(S'S3'
p1665
I0
I1
tp1666
Rp1667
(I3
S'|'
p1668
NNNI3
I1
I0
tp1669
bS'3.5'
p1670
tp1671
Rp1672
sg31
g3
(g4
(S'S3'
p1673
I0
I1
tp1674
Rp1675
(I3
S'|'
p1676
NNNI3
I1
I0
tp1677
bS'1.3'
p1678
tp1679
Rp1680
sg40
g3
(g4
(S'S6'
p1681
I0
I1
tp1682
Rp1683
(I3
S'|'
p1684
NNNI6
I1
I0
tp1685
bS'setosa'
p1686
tp1687
Rp1688
sa(dp1689
g2
g3
(g4
(S'S3'
p1690
I0
I1
tp1691
Rp1692
(I3
S'|'
p1693
NNNI3
I1
I0
tp1694
bS'4.5'
p1695
tp1696
Rp1697
sg13
g3
(g4
(S'S3'
p1698
I0
I1
tp1699
Rp1700
(I3
S'|'
p1701
NNNI3
I1
I0
tp1702
bS'0.3'
p1703
tp1704
Rp1705
sg22
g3
(g4
(S'S3'
p1706
I0
I1
tp1707
Rp1708
(I3
S'|'
p1709
NNNI3
I1
I0
tp1710
bS'2.3'
p1711
tp1712
Rp1713
sg31
g3
(g4
(S'S3'
p1714
I0
I1
tp1715
Rp1716
(I3
S'|'
p1717
NNNI3
I1
I0
tp1718
bS'1.3'
p1719
tp1720
Rp1721
sg40
g3
(g4
(S'S6'
p1722
I0
I1
tp1723
Rp1724
(I3
S'|'
p1725
NNNI6
I1
I0
tp1726
bS'setosa'
p1727
tp1728
Rp1729
sa(dp1730
g2
g3
(g4
(S'S3'
p1731
I0
I1
tp1732
Rp1733
(I3
S'|'
p1734
NNNI3
I1
I0
tp1735
bS'4.4'
p1736
tp1737
Rp1738
sg13
g3
(g4
(S'S3'
p1739
I0
I1
tp1740
Rp1741
(I3
S'|'
p1742
NNNI3
I1
I0
tp1743
bS'0.2'
p1744
tp1745
Rp1746
sg22
g3
(g4
(S'S3'
p1747
I0
I1
tp1748
Rp1749
(I3
S'|'
p1750
NNNI3
I1
I0
tp1751
bS'3.2'
p1752
tp1753
Rp1754
sg31
g3
(g4
(S'S3'
p1755
I0
I1
tp1756
Rp1757
(I3
S'|'
p1758
NNNI3
I1
I0
tp1759
bS'1.3'
p1760
tp1761
Rp1762
sg40
g3
(g4
(S'S6'
p1763
I0
I1
tp1764
Rp1765
(I3
S'|'
p1766
NNNI6
I1
I0
tp1767
bS'setosa'
p1768
tp1769
Rp1770
sa(dp1771
g2
g3
(g4
(S'S3'
p1772
I0
I1
tp1773
Rp1774
(I3
S'|'
p1775
NNNI3
I1
I0
tp1776
bS'5.0'
p1777
tp1778
Rp1779
sg13
g3
(g4
(S'S3'
p1780
I0
I1
tp1781
Rp1782
(I3
S'|'
p1783
NNNI3
I1
I0
tp1784
bS'0.6'
p1785
tp1786
Rp1787
sg22
g3
(g4
(S'S3'
p1788
I0
I1
tp1789
Rp1790
(I3
S'|'
p1791
NNNI3
I1
I0
tp1792
bS'3.5'
p1793
tp1794
Rp1795
sg31
g3
(g4
(S'S3'
p1796
I0
I1
tp1797
Rp1798
(I3
S'|'
p1799
NNNI3
I1
I0
tp1800
bS'1.6'
p1801
tp1802
Rp1803
sg40
g3
(g4
(S'S6'
p1804
I0
I1
tp1805
Rp1806
(I3
S'|'
p1807
NNNI6
I1
I0
tp1808
bS'setosa'
p1809
tp1810
Rp1811
sa(dp1812
g2
g3
(g4
(S'S3'
p1813
I0
I1
tp1814
Rp1815
(I3
S'|'
p1816
NNNI3
I1
I0
tp1817
bS'5.1'
p1818
tp1819
Rp1820
sg13
g3
(g4
(S'S3'
p1821
I0
I1
tp1822
Rp1823
(I3
S'|'
p1824
NNNI3
I1
I0
tp1825
bS'0.4'
p1826
tp1827
Rp1828
sg22
g3
(g4
(S'S3'
p1829
I0
I1
tp1830
Rp1831
(I3
S'|'
p1832
NNNI3
I1
I0
tp1833
bS'3.8'
p1834
tp1835
Rp1836
sg31
g3
(g4
(S'S3'
p1837
I0
I1
tp1838
Rp1839
(I3
S'|'
p1840
NNNI3
I1
I0
tp1841
bS'1.9'
p1842
tp1843
Rp1844
sg40
g3
(g4
(S'S6'
p1845
I0
I1
tp1846
Rp1847
(I3
S'|'
p1848
NNNI6
I1
I0
tp1849
bS'setosa'
p1850
tp1851
Rp1852
sa(dp1853
g2
g3
(g4
(S'S3'
p1854
I0
I1
tp1855
Rp1856
(I3
S'|'
p1857
NNNI3
I1
I0
tp1858
bS'4.8'
p1859
tp1860
Rp1861
sg13
g3
(g4
(S'S3'
p1862
I0
I1
tp1863
Rp1864
(I3
S'|'
p1865
NNNI3
I1
I0
tp1866
bS'0.3'
p1867
tp1868
Rp1869
sg22
g3
(g4
(S'S3'
p1870
I0
I1
tp1871
Rp1872
(I3
S'|'
p1873
NNNI3
I1
I0
tp1874
bS'3.0'
p1875
tp1876
Rp1877
sg31
g3
(g4
(S'S3'
p1878
I0
I1
tp1879
Rp1880
(I3
S'|'
p1881
NNNI3
I1
I0
tp1882
bS'1.4'
p1883
tp1884
Rp1885
sg40
g3
(g4
(S'S6'
p1886
I0
I1
tp1887
Rp1888
(I3
S'|'
p1889
NNNI6
I1
I0
tp1890
bS'setosa'
p1891
tp1892
Rp1893
sa(dp1894
g2
g3
(g4
(S'S3'
p1895
I0
I1
tp1896
Rp1897
(I3
S'|'
p1898
NNNI3
I1
I0
tp1899
bS'5.1'
p1900
tp1901
Rp1902
sg13
g3
(g4
(S'S3'
p1903
I0
I1
tp1904
Rp1905
(I3
S'|'
p1906
NNNI3
I1
I0
tp1907
bS'0.2'
p1908
tp1909
Rp1910
sg22
g3
(g4
(S'S3'
p1911
I0
I1
tp1912
Rp1913
(I3
S'|'
p1914
NNNI3
I1
I0
tp1915
bS'3.8'
p1916
tp1917
Rp1918
sg31
g3
(g4
(S'S3'
p1919
I0
I1
tp1920
Rp1921
(I3
S'|'
p1922
NNNI3
I1
I0
tp1923
bS'1.6'
p1924
tp1925
Rp1926
sg40
g3
(g4
(S'S6'
p1927
I0
I1
tp1928
Rp1929
(I3
S'|'
p1930
NNNI6
I1
I0
tp1931
bS'setosa'
p1932
tp1933
Rp1934
sa(dp1935
g2
g3
(g4
(S'S3'
p1936
I0
I1
tp1937
Rp1938
(I3
S'|'
p1939
NNNI3
I1
I0
tp1940
bS'4.6'
p1941
tp1942
Rp1943
sg13
g3
(g4
(S'S3'
p1944
I0
I1
tp1945
Rp1946
(I3
S'|'
p1947
NNNI3
I1
I0
tp1948
bS'0.2'
p1949
tp1950
Rp1951
sg22
g3
(g4
(S'S3'
p1952
I0
I1
tp1953
Rp1954
(I3
S'|'
p1955
NNNI3
I1
I0
tp1956
bS'3.2'
p1957
tp1958
Rp1959
sg31
g3
(g4
(S'S3'
p1960
I0
I1
tp1961
Rp1962
(I3
S'|'
p1963
NNNI3
I1
I0
tp1964
bS'1.4'
p1965
tp1966
Rp1967
sg40
g3
(g4
(S'S6'
p1968
I0
I1
tp1969
Rp1970
(I3
S'|'
p1971
NNNI6
I1
I0
tp1972
bS'setosa'
p1973
tp1974
Rp1975
sa(dp1976
g2
g3
(g4
(S'S3'
p1977
I0
I1
tp1978
Rp1979
(I3
S'|'
p1980
NNNI3
I1
I0
tp1981
bS'5.3'
p1982
tp1983
Rp1984
sg13
g3
(g4
(S'S3'
p1985
I0
I1
tp1986
Rp1987
(I3
S'|'
p1988
NNNI3
I1
I0
tp1989
bS'0.2'
p1990
tp1991
Rp1992
sg22
g3
(g4
(S'S3'
p1993
I0
I1
tp1994
Rp1995
(I3
S'|'
p1996
NNNI3
I1
I0
tp1997
bS'3.7'
p1998
tp1999
Rp2000
sg31
g3
(g4
(S'S3'
p2001
I0
I1
tp2002
Rp2003
(I3
S'|'
p2004
NNNI3
I1
I0
tp2005
bS'1.5'
p2006
tp2007
Rp2008
sg40
g3
(g4
(S'S6'
p2009
I0
I1
tp2010
Rp2011
(I3
S'|'
p2012
NNNI6
I1
I0
tp2013
bS'setosa'
p2014
tp2015
Rp2016
sa(dp2017
g2
g3
(g4
(S'S3'
p2018
I0
I1
tp2019
Rp2020
(I3
S'|'
p2021
NNNI3
I1
I0
tp2022
bS'5.0'
p2023
tp2024
Rp2025
sg13
g3
(g4
(S'S3'
p2026
I0
I1
tp2027
Rp2028
(I3
S'|'
p2029
NNNI3
I1
I0
tp2030
bS'0.2'
p2031
tp2032
Rp2033
sg22
g3
(g4
(S'S3'
p2034
I0
I1
tp2035
Rp2036
(I3
S'|'
p2037
NNNI3
I1
I0
tp2038
bS'3.3'
p2039
tp2040
Rp2041
sg31
g3
(g4
(S'S3'
p2042
I0
I1
tp2043
Rp2044
(I3
S'|'
p2045
NNNI3
I1
I0
tp2046
bS'1.4'
p2047
tp2048
Rp2049
sg40
g3
(g4
(S'S6'
p2050
I0
I1
tp2051
Rp2052
(I3
S'|'
p2053
NNNI6
I1
I0
tp2054
bS'setosa'
p2055
tp2056
Rp2057
sa(dp2058
g2
g3
(g4
(S'S3'
p2059
I0
I1
tp2060
Rp2061
(I3
S'|'
p2062
NNNI3
I1
I0
tp2063
bS'7.0'
p2064
tp2065
Rp2066
sg13
g3
(g4
(S'S3'
p2067
I0
I1
tp2068
Rp2069
(I3
S'|'
p2070
NNNI3
I1
I0
tp2071
bS'1.4'
p2072
tp2073
Rp2074
sg22
g3
(g4
(S'S3'
p2075
I0
I1
tp2076
Rp2077
(I3
S'|'
p2078
NNNI3
I1
I0
tp2079
bS'3.2'
p2080
tp2081
Rp2082
sg31
g3
(g4
(S'S3'
p2083
I0
I1
tp2084
Rp2085
(I3
S'|'
p2086
NNNI3
I1
I0
tp2087
bS'4.7'
p2088
tp2089
Rp2090
sg40
g3
(g4
(S'S10'
p2091
I0
I1
tp2092
Rp2093
(I3
S'|'
p2094
NNNI10
I1
I0
tp2095
bS'versicolor'
p2096
tp2097
Rp2098
sa(dp2099
g2
g3
(g4
(S'S3'
p2100
I0
I1
tp2101
Rp2102
(I3
S'|'
p2103
NNNI3
I1
I0
tp2104
bS'6.4'
p2105
tp2106
Rp2107
sg13
g3
(g4
(S'S3'
p2108
I0
I1
tp2109
Rp2110
(I3
S'|'
p2111
NNNI3
I1
I0
tp2112
bS'1.5'
p2113
tp2114
Rp2115
sg22
g3
(g4
(S'S3'
p2116
I0
I1
tp2117
Rp2118
(I3
S'|'
p2119
NNNI3
I1
I0
tp2120
bS'3.2'
p2121
tp2122
Rp2123
sg31
g3
(g4
(S'S3'
p2124
I0
I1
tp2125
Rp2126
(I3
S'|'
p2127
NNNI3
I1
I0
tp2128
bS'4.5'
p2129
tp2130
Rp2131
sg40
g3
(g4
(S'S10'
p2132
I0
I1
tp2133
Rp2134
(I3
S'|'
p2135
NNNI10
I1
I0
tp2136
bS'versicolor'
p2137
tp2138
Rp2139
sa(dp2140
g2
g3
(g4
(S'S3'
p2141
I0
I1
tp2142
Rp2143
(I3
S'|'
p2144
NNNI3
I1
I0
tp2145
bS'6.9'
p2146
tp2147
Rp2148
sg13
g3
(g4
(S'S3'
p2149
I0
I1
tp2150
Rp2151
(I3
S'|'
p2152
NNNI3
I1
I0
tp2153
bS'1.5'
p2154
tp2155
Rp2156
sg22
g3
(g4
(S'S3'
p2157
I0
I1
tp2158
Rp2159
(I3
S'|'
p2160
NNNI3
I1
I0
tp2161
bS'3.1'
p2162
tp2163
Rp2164
sg31
g3
(g4
(S'S3'
p2165
I0
I1
tp2166
Rp2167
(I3
S'|'
p2168
NNNI3
I1
I0
tp2169
bS'4.9'
p2170
tp2171
Rp2172
sg40
g3
(g4
(S'S10'
p2173
I0
I1
tp2174
Rp2175
(I3
S'|'
p2176
NNNI10
I1
I0
tp2177
bS'versicolor'
p2178
tp2179
Rp2180
sa(dp2181
g2
g3
(g4
(S'S3'
p2182
I0
I1
tp2183
Rp2184
(I3
S'|'
p2185
NNNI3
I1
I0
tp2186
bS'5.5'
p2187
tp2188
Rp2189
sg13
g3
(g4
(S'S3'
p2190
I0
I1
tp2191
Rp2192
(I3
S'|'
p2193
NNNI3
I1
I0
tp2194
bS'1.3'
p2195
tp2196
Rp2197
sg22
g3
(g4
(S'S3'
p2198
I0
I1
tp2199
Rp2200
(I3
S'|'
p2201
NNNI3
I1
I0
tp2202
bS'2.3'
p2203
tp2204
Rp2205
sg31
g3
(g4
(S'S3'
p2206
I0
I1
tp2207
Rp2208
(I3
S'|'
p2209
NNNI3
I1
I0
tp2210
bS'4.0'
p2211
tp2212
Rp2213
sg40
g3
(g4
(S'S10'
p2214
I0
I1
tp2215
Rp2216
(I3
S'|'
p2217
NNNI10
I1
I0
tp2218
bS'versicolor'
p2219
tp2220
Rp2221
sa(dp2222
g2
g3
(g4
(S'S3'
p2223
I0
I1
tp2224
Rp2225
(I3
S'|'
p2226
NNNI3
I1
I0
tp2227
bS'6.5'
p2228
tp2229
Rp2230
sg13
g3
(g4
(S'S3'
p2231
I0
I1
tp2232
Rp2233
(I3
S'|'
p2234
NNNI3
I1
I0
tp2235
bS'1.5'
p2236
tp2237
Rp2238
sg22
g3
(g4
(S'S3'
p2239
I0
I1
tp2240
Rp2241
(I3
S'|'
p2242
NNNI3
I1
I0
tp2243
bS'2.8'
p2244
tp2245
Rp2246
sg31
g3
(g4
(S'S3'
p2247
I0
I1
tp2248
Rp2249
(I3
S'|'
p2250
NNNI3
I1
I0
tp2251
bS'4.6'
p2252
tp2253
Rp2254
sg40
g3
(g4
(S'S10'
p2255
I0
I1
tp2256
Rp2257
(I3
S'|'
p2258
NNNI10
I1
I0
tp2259
bS'versicolor'
p2260
tp2261
Rp2262
sa(dp2263
g2
g3
(g4
(S'S3'
p2264
I0
I1
tp2265
Rp2266
(I3
S'|'
p2267
NNNI3
I1
I0
tp2268
bS'5.7'
p2269
tp2270
Rp2271
sg13
g3
(g4
(S'S3'
p2272
I0
I1
tp2273
Rp2274
(I3
S'|'
p2275
NNNI3
I1
I0
tp2276
bS'1.3'
p2277
tp2278
Rp2279
sg22
g3
(g4
(S'S3'
p2280
I0
I1
tp2281
Rp2282
(I3
S'|'
p2283
NNNI3
I1
I0
tp2284
bS'2.8'
p2285
tp2286
Rp2287
sg31
g3
(g4
(S'S3'
p2288
I0
I1
tp2289
Rp2290
(I3
S'|'
p2291
NNNI3
I1
I0
tp2292
bS'4.5'
p2293
tp2294
Rp2295
sg40
g3
(g4
(S'S10'
p2296
I0
I1
tp2297
Rp2298
(I3
S'|'
p2299
NNNI10
I1
I0
tp2300
bS'versicolor'
p2301
tp2302
Rp2303
sa(dp2304
g2
g3
(g4
(S'S3'
p2305
I0
I1
tp2306
Rp2307
(I3
S'|'
p2308
NNNI3
I1
I0
tp2309
bS'6.3'
p2310
tp2311
Rp2312
sg13
g3
(g4
(S'S3'
p2313
I0
I1
tp2314
Rp2315
(I3
S'|'
p2316
NNNI3
I1
I0
tp2317
bS'1.6'
p2318
tp2319
Rp2320
sg22
g3
(g4
(S'S3'
p2321
I0
I1
tp2322
Rp2323
(I3
S'|'
p2324
NNNI3
I1
I0
tp2325
bS'3.3'
p2326
tp2327
Rp2328
sg31
g3
(g4
(S'S3'
p2329
I0
I1
tp2330
Rp2331
(I3
S'|'
p2332
NNNI3
I1
I0
tp2333
bS'4.7'
p2334
tp2335
Rp2336
sg40
g3
(g4
(S'S10'
p2337
I0
I1
tp2338
Rp2339
(I3
S'|'
p2340
NNNI10
I1
I0
tp2341
bS'versicolor'
p2342
tp2343
Rp2344
sa(dp2345
g2
g3
(g4
(S'S3'
p2346
I0
I1
tp2347
Rp2348
(I3
S'|'
p2349
NNNI3
I1
I0
tp2350
bS'4.9'
p2351
tp2352
Rp2353
sg13
g3
(g4
(S'S3'
p2354
I0
I1
tp2355
Rp2356
(I3
S'|'
p2357
NNNI3
I1
I0
tp2358
bS'1.0'
p2359
tp2360
Rp2361
sg22
g3
(g4
(S'S3'
p2362
I0
I1
tp2363
Rp2364
(I3
S'|'
p2365
NNNI3
I1
I0
tp2366
bS'2.4'
p2367
tp2368
Rp2369
sg31
g3
(g4
(S'S3'
p2370
I0
I1
tp2371
Rp2372
(I3
S'|'
p2373
NNNI3
I1
I0
tp2374
bS'3.3'
p2375
tp2376
Rp2377
sg40
g3
(g4
(S'S10'
p2378
I0
I1
tp2379
Rp2380
(I3
S'|'
p2381
NNNI10
I1
I0
tp2382
bS'versicolor'
p2383
tp2384
Rp2385
sa(dp2386
g2
g3
(g4
(S'S3'
p2387
I0
I1
tp2388
Rp2389
(I3
S'|'
p2390
NNNI3
I1
I0
tp2391
bS'6.6'
p2392
tp2393
Rp2394
sg13
g3
(g4
(S'S3'
p2395
I0
I1
tp2396
Rp2397
(I3
S'|'
p2398
NNNI3
I1
I0
tp2399
bS'1.3'
p2400
tp2401
Rp2402
sg22
g3
(g4
(S'S3'
p2403
I0
I1
tp2404
Rp2405
(I3
S'|'
p2406
NNNI3
I1
I0
tp2407
bS'2.9'
p2408
tp2409
Rp2410
sg31
g3
(g4
(S'S3'
p2411
I0
I1
tp2412
Rp2413
(I3
S'|'
p2414
NNNI3
I1
I0
tp2415
bS'4.6'
p2416
tp2417
Rp2418
sg40
g3
(g4
(S'S10'
p2419
I0
I1
tp2420
Rp2421
(I3
S'|'
p2422
NNNI10
I1
I0
tp2423
bS'versicolor'
p2424
tp2425
Rp2426
sa(dp2427
g2
g3
(g4
(S'S3'
p2428
I0
I1
tp2429
Rp2430
(I3
S'|'
p2431
NNNI3
I1
I0
tp2432
bS'5.2'
p2433
tp2434
Rp2435
sg13
g3
(g4
(S'S3'
p2436
I0
I1
tp2437
Rp2438
(I3
S'|'
p2439
NNNI3
I1
I0
tp2440
bS'1.4'
p2441
tp2442
Rp2443
sg22
g3
(g4
(S'S3'
p2444
I0
I1
tp2445
Rp2446
(I3
S'|'
p2447
NNNI3
I1
I0
tp2448
bS'2.7'
p2449
tp2450
Rp2451
sg31
g3
(g4
(S'S3'
p2452
I0
I1
tp2453
Rp2454
(I3
S'|'
p2455
NNNI3
I1
I0
tp2456
bS'3.9'
p2457
tp2458
Rp2459
sg40
g3
(g4
(S'S10'
p2460
I0
I1
tp2461
Rp2462
(I3
S'|'
p2463
NNNI10
I1
I0
tp2464
bS'versicolor'
p2465
tp2466
Rp2467
sa(dp2468
g2
g3
(g4
(S'S3'
p2469
I0
I1
tp2470
Rp2471
(I3
S'|'
p2472
NNNI3
I1
I0
tp2473
bS'5.0'
p2474
tp2475
Rp2476
sg13
g3
(g4
(S'S3'
p2477
I0
I1
tp2478
Rp2479
(I3
S'|'
p2480
NNNI3
I1
I0
tp2481
bS'1.0'
p2482
tp2483
Rp2484
sg22
g3
(g4
(S'S3'
p2485
I0
I1
tp2486
Rp2487
(I3
S'|'
p2488
NNNI3
I1
I0
tp2489
bS'2.0'
p2490
tp2491
Rp2492
sg31
g3
(g4
(S'S3'
p2493
I0
I1
tp2494
Rp2495
(I3
S'|'
p2496
NNNI3
I1
I0
tp2497
bS'3.5'
p2498
tp2499
Rp2500
sg40
g3
(g4
(S'S10'
p2501
I0
I1
tp2502
Rp2503
(I3
S'|'
p2504
NNNI10
I1
I0
tp2505
bS'versicolor'
p2506
tp2507
Rp2508
sa(dp2509
g2
g3
(g4
(S'S3'
p2510
I0
I1
tp2511
Rp2512
(I3
S'|'
p2513
NNNI3
I1
I0
tp2514
bS'5.9'
p2515
tp2516
Rp2517
sg13
g3
(g4
(S'S3'
p2518
I0
I1
tp2519
Rp2520
(I3
S'|'
p2521
NNNI3
I1
I0
tp2522
bS'1.5'
p2523
tp2524
Rp2525
sg22
g3
(g4
(S'S3'
p2526
I0
I1
tp2527
Rp2528
(I3
S'|'
p2529
NNNI3
I1
I0
tp2530
bS'3.0'
p2531
tp2532
Rp2533
sg31
g3
(g4
(S'S3'
p2534
I0
I1
tp2535
Rp2536
(I3
S'|'
p2537
NNNI3
I1
I0
tp2538
bS'4.2'
p2539
tp2540
Rp2541
sg40
g3
(g4
(S'S10'
p2542
I0
I1
tp2543
Rp2544
(I3
S'|'
p2545
NNNI10
I1
I0
tp2546
bS'versicolor'
p2547
tp2548
Rp2549
sa(dp2550
g2
g3
(g4
(S'S3'
p2551
I0
I1
tp2552
Rp2553
(I3
S'|'
p2554
NNNI3
I1
I0
tp2555
bS'6.0'
p2556
tp2557
Rp2558
sg13
g3
(g4
(S'S3'
p2559
I0
I1
tp2560
Rp2561
(I3
S'|'
p2562
NNNI3
I1
I0
tp2563
bS'1.0'
p2564
tp2565
Rp2566
sg22
g3
(g4
(S'S3'
p2567
I0
I1
tp2568
Rp2569
(I3
S'|'
p2570
NNNI3
I1
I0
tp2571
bS'2.2'
p2572
tp2573
Rp2574
sg31
g3
(g4
(S'S3'
p2575
I0
I1
tp2576
Rp2577
(I3
S'|'
p2578
NNNI3
I1
I0
tp2579
bS'4.0'
p2580
tp2581
Rp2582
sg40
g3
(g4
(S'S10'
p2583
I0
I1
tp2584
Rp2585
(I3
S'|'
p2586
NNNI10
I1
I0
tp2587
bS'versicolor'
p2588
tp2589
Rp2590
sa(dp2591
g2
g3
(g4
(S'S3'
p2592
I0
I1
tp2593
Rp2594
(I3
S'|'
p2595
NNNI3
I1
I0
tp2596
bS'6.1'
p2597
tp2598
Rp2599
sg13
g3
(g4
(S'S3'
p2600
I0
I1
tp2601
Rp2602
(I3
S'|'
p2603
NNNI3
I1
I0
tp2604
bS'1.4'
p2605
tp2606
Rp2607
sg22
g3
(g4
(S'S3'
p2608
I0
I1
tp2609
Rp2610
(I3
S'|'
p2611
NNNI3
I1
I0
tp2612
bS'2.9'
p2613
tp2614
Rp2615
sg31
g3
(g4
(S'S3'
p2616
I0
I1
tp2617
Rp2618
(I3
S'|'
p2619
NNNI3
I1
I0
tp2620
bS'4.7'
p2621
tp2622
Rp2623
sg40
g3
(g4
(S'S10'
p2624
I0
I1
tp2625
Rp2626
(I3
S'|'
p2627
NNNI10
I1
I0
tp2628
bS'versicolor'
p2629
tp2630
Rp2631
sa(dp2632
g2
g3
(g4
(S'S3'
p2633
I0
I1
tp2634
Rp2635
(I3
S'|'
p2636
NNNI3
I1
I0
tp2637
bS'5.6'
p2638
tp2639
Rp2640
sg13
g3
(g4
(S'S3'
p2641
I0
I1
tp2642
Rp2643
(I3
S'|'
p2644
NNNI3
I1
I0
tp2645
bS'1.3'
p2646
tp2647
Rp2648
sg22
g3
(g4
(S'S3'
p2649
I0
I1
tp2650
Rp2651
(I3
S'|'
p2652
NNNI3
I1
I0
tp2653
bS'2.9'
p2654
tp2655
Rp2656
sg31
g3
(g4
(S'S3'
p2657
I0
I1
tp2658
Rp2659
(I3
S'|'
p2660
NNNI3
I1
I0
tp2661
bS'3.6'
p2662
tp2663
Rp2664
sg40
g3
(g4
(S'S10'
p2665
I0
I1
tp2666
Rp2667
(I3
S'|'
p2668
NNNI10
I1
I0
tp2669
bS'versicolor'
p2670
tp2671
Rp2672
sa(dp2673
g2
g3
(g4
(S'S3'
p2674
I0
I1
tp2675
Rp2676
(I3
S'|'
p2677
NNNI3
I1
I0
tp2678
bS'6.7'
p2679
tp2680
Rp2681
sg13
g3
(g4
(S'S3'
p2682
I0
I1
tp2683
Rp2684
(I3
S'|'
p2685
NNNI3
I1
I0
tp2686
bS'1.4'
p2687
tp2688
Rp2689
sg22
g3
(g4
(S'S3'
p2690
I0
I1
tp2691
Rp2692
(I3
S'|'
p2693
NNNI3
I1
I0
tp2694
bS'3.1'
p2695
tp2696
Rp2697
sg31
g3
(g4
(S'S3'
p2698
I0
I1
tp2699
Rp2700
(I3
S'|'
p2701
NNNI3
I1
I0
tp2702
bS'4.4'
p2703
tp2704
Rp2705
sg40
g3
(g4
(S'S10'
p2706
I0
I1
tp2707
Rp2708
(I3
S'|'
p2709
NNNI10
I1
I0
tp2710
bS'versicolor'
p2711
tp2712
Rp2713
sa(dp2714
g2
g3
(g4
(S'S3'
p2715
I0
I1
tp2716
Rp2717
(I3
S'|'
p2718
NNNI3
I1
I0
tp2719
bS'5.6'
p2720
tp2721
Rp2722
sg13
g3
(g4
(S'S3'
p2723
I0
I1
tp2724
Rp2725
(I3
S'|'
p2726
NNNI3
I1
I0
tp2727
bS'1.5'
p2728
tp2729
Rp2730
sg22
g3
(g4
(S'S3'
p2731
I0
I1
tp2732
Rp2733
(I3
S'|'
p2734
NNNI3
I1
I0
tp2735
bS'3.0'
p2736
tp2737
Rp2738
sg31
g3
(g4
(S'S3'
p2739
I0
I1
tp2740
Rp2741
(I3
S'|'
p2742
NNNI3
I1
I0
tp2743
bS'4.5'
p2744
tp2745
Rp2746
sg40
g3
(g4
(S'S10'
p2747
I0
I1
tp2748
Rp2749
(I3
S'|'
p2750
NNNI10
I1
I0
tp2751
bS'versicolor'
p2752
tp2753
Rp2754
sa(dp2755
g2
g3
(g4
(S'S3'
p2756
I0
I1
tp2757
Rp2758
(I3
S'|'
p2759
NNNI3
I1
I0
tp2760
bS'5.8'
p2761
tp2762
Rp2763
sg13
g3
(g4
(S'S3'
p2764
I0
I1
tp2765
Rp2766
(I3
S'|'
p2767
NNNI3
I1
I0
tp2768
bS'1.0'
p2769
tp2770
Rp2771
sg22
g3
(g4
(S'S3'
p2772
I0
I1
tp2773
Rp2774
(I3
S'|'
p2775
NNNI3
I1
I0
tp2776
bS'2.7'
p2777
tp2778
Rp2779
sg31
g3
(g4
(S'S3'
p2780
I0
I1
tp2781
Rp2782
(I3
S'|'
p2783
NNNI3
I1
I0
tp2784
bS'4.1'
p2785
tp2786
Rp2787
sg40
g3
(g4
(S'S10'
p2788
I0
I1
tp2789
Rp2790
(I3
S'|'
p2791
NNNI10
I1
I0
tp2792
bS'versicolor'
p2793
tp2794
Rp2795
sa(dp2796
g2
g3
(g4
(S'S3'
p2797
I0
I1
tp2798
Rp2799
(I3
S'|'
p2800
NNNI3
I1
I0
tp2801
bS'6.2'
p2802
tp2803
Rp2804
sg13
g3
(g4
(S'S3'
p2805
I0
I1
tp2806
Rp2807
(I3
S'|'
p2808
NNNI3
I1
I0
tp2809
bS'1.5'
p2810
tp2811
Rp2812
sg22
g3
(g4
(S'S3'
p2813
I0
I1
tp2814
Rp2815
(I3
S'|'
p2816
NNNI3
I1
I0
tp2817
bS'2.2'
p2818
tp2819
Rp2820
sg31
g3
(g4
(S'S3'
p2821
I0
I1
tp2822
Rp2823
(I3
S'|'
p2824
NNNI3
I1
I0
tp2825
bS'4.5'
p2826
tp2827
Rp2828
sg40
g3
(g4
(S'S10'
p2829
I0
I1
tp2830
Rp2831
(I3
S'|'
p2832
NNNI10
I1
I0
tp2833
bS'versicolor'
p2834
tp2835
Rp2836
sa(dp2837
g2
g3
(g4
(S'S3'
p2838
I0
I1
tp2839
Rp2840
(I3
S'|'
p2841
NNNI3
I1
I0
tp2842
bS'5.6'
p2843
tp2844
Rp2845
sg13
g3
(g4
(S'S3'
p2846
I0
I1
tp2847
Rp2848
(I3
S'|'
p2849
NNNI3
I1
I0
tp2850
bS'1.1'
p2851
tp2852
Rp2853
sg22
g3
(g4
(S'S3'
p2854
I0
I1
tp2855
Rp2856
(I3
S'|'
p2857
NNNI3
I1
I0
tp2858
bS'2.5'
p2859
tp2860
Rp2861
sg31
g3
(g4
(S'S3'
p2862
I0
I1
tp2863
Rp2864
(I3
S'|'
p2865
NNNI3
I1
I0
tp2866
bS'3.9'
p2867
tp2868
Rp2869
sg40
g3
(g4
(S'S10'
p2870
I0
I1
tp2871
Rp2872
(I3
S'|'
p2873
NNNI10
I1
I0
tp2874
bS'versicolor'
p2875
tp2876
Rp2877
sa(dp2878
g2
g3
(g4
(S'S3'
p2879
I0
I1
tp2880
Rp2881
(I3
S'|'
p2882
NNNI3
I1
I0
tp2883
bS'5.9'
p2884
tp2885
Rp2886
sg13
g3
(g4
(S'S3'
p2887
I0
I1
tp2888
Rp2889
(I3
S'|'
p2890
NNNI3
I1
I0
tp2891
bS'1.8'
p2892
tp2893
Rp2894
sg22
g3
(g4
(S'S3'
p2895
I0
I1
tp2896
Rp2897
(I3
S'|'
p2898
NNNI3
I1
I0
tp2899
bS'3.2'
p2900
tp2901
Rp2902
sg31
g3
(g4
(S'S3'
p2903
I0
I1
tp2904
Rp2905
(I3
S'|'
p2906
NNNI3
I1
I0
tp2907
bS'4.8'
p2908
tp2909
Rp2910
sg40
g3
(g4
(S'S10'
p2911
I0
I1
tp2912
Rp2913
(I3
S'|'
p2914
NNNI10
I1
I0
tp2915
bS'versicolor'
p2916
tp2917
Rp2918
sa(dp2919
g2
g3
(g4
(S'S3'
p2920
I0
I1
tp2921
Rp2922
(I3
S'|'
p2923
NNNI3
I1
I0
tp2924
bS'6.1'
p2925
tp2926
Rp2927
sg13
g3
(g4
(S'S3'
p2928
I0
I1
tp2929
Rp2930
(I3
S'|'
p2931
NNNI3
I1
I0
tp2932
bS'1.3'
p2933
tp2934
Rp2935
sg22
g3
(g4
(S'S3'
p2936
I0
I1
tp2937
Rp2938
(I3
S'|'
p2939
NNNI3
I1
I0
tp2940
bS'2.8'
p2941
tp2942
Rp2943
sg31
g3
(g4
(S'S3'
p2944
I0
I1
tp2945
Rp2946
(I3
S'|'
p2947
NNNI3
I1
I0
tp2948
bS'4.0'
p2949
tp2950
Rp2951
sg40
g3
(g4
(S'S10'
p2952
I0
I1
tp2953
Rp2954
(I3
S'|'
p2955
NNNI10
I1
I0
tp2956
bS'versicolor'
p2957
tp2958
Rp2959
sa(dp2960
g2
g3
(g4
(S'S3'
p2961
I0
I1
tp2962
Rp2963
(I3
S'|'
p2964
NNNI3
I1
I0
tp2965
bS'6.3'
p2966
tp2967
Rp2968
sg13
g3
(g4
(S'S3'
p2969
I0
I1
tp2970
Rp2971
(I3
S'|'
p2972
NNNI3
I1
I0
tp2973
bS'1.5'
p2974
tp2975
Rp2976
sg22
g3
(g4
(S'S3'
p2977
I0
I1
tp2978
Rp2979
(I3
S'|'
p2980
NNNI3
I1
I0
tp2981
bS'2.5'
p2982
tp2983
Rp2984
sg31
g3
(g4
(S'S3'
p2985
I0
I1
tp2986
Rp2987
(I3
S'|'
p2988
NNNI3
I1
I0
tp2989
bS'4.9'
p2990
tp2991
Rp2992
sg40
g3
(g4
(S'S10'
p2993
I0
I1
tp2994
Rp2995
(I3
S'|'
p2996
NNNI10
I1
I0
tp2997
bS'versicolor'
p2998
tp2999
Rp3000
sa(dp3001
g2
g3
(g4
(S'S3'
p3002
I0
I1
tp3003
Rp3004
(I3
S'|'
p3005
NNNI3
I1
I0
tp3006
bS'6.1'
p3007
tp3008
Rp3009
sg13
g3
(g4
(S'S3'
p3010
I0
I1
tp3011
Rp3012
(I3
S'|'
p3013
NNNI3
I1
I0
tp3014
bS'1.2'
p3015
tp3016
Rp3017
sg22
g3
(g4
(S'S3'
p3018
I0
I1
tp3019
Rp3020
(I3
S'|'
p3021
NNNI3
I1
I0
tp3022
bS'2.8'
p3023
tp3024
Rp3025
sg31
g3
(g4
(S'S3'
p3026
I0
I1
tp3027
Rp3028
(I3
S'|'
p3029
NNNI3
I1
I0
tp3030
bS'4.7'
p3031
tp3032
Rp3033
sg40
g3
(g4
(S'S10'
p3034
I0
I1
tp3035
Rp3036
(I3
S'|'
p3037
NNNI10
I1
I0
tp3038
bS'versicolor'
p3039
tp3040
Rp3041
sa(dp3042
g2
g3
(g4
(S'S3'
p3043
I0
I1
tp3044
Rp3045
(I3
S'|'
p3046
NNNI3
I1
I0
tp3047
bS'6.4'
p3048
tp3049
Rp3050
sg13
g3
(g4
(S'S3'
p3051
I0
I1
tp3052
Rp3053
(I3
S'|'
p3054
NNNI3
I1
I0
tp3055
bS'1.3'
p3056
tp3057
Rp3058
sg22
g3
(g4
(S'S3'
p3059
I0
I1
tp3060
Rp3061
(I3
S'|'
p3062
NNNI3
I1
I0
tp3063
bS'2.9'
p3064
tp3065
Rp3066
sg31
g3
(g4
(S'S3'
p3067
I0
I1
tp3068
Rp3069
(I3
S'|'
p3070
NNNI3
I1
I0
tp3071
bS'4.3'
p3072
tp3073
Rp3074
sg40
g3
(g4
(S'S10'
p3075
I0
I1
tp3076
Rp3077
(I3
S'|'
p3078
NNNI10
I1
I0
tp3079
bS'versicolor'
p3080
tp3081
Rp3082
sa(dp3083
g2
g3
(g4
(S'S3'
p3084
I0
I1
tp3085
Rp3086
(I3
S'|'
p3087
NNNI3
I1
I0
tp3088
bS'6.6'
p3089
tp3090
Rp3091
sg13
g3
(g4
(S'S3'
p3092
I0
I1
tp3093
Rp3094
(I3
S'|'
p3095
NNNI3
I1
I0
tp3096
bS'1.4'
p3097
tp3098
Rp3099
sg22
g3
(g4
(S'S3'
p3100
I0
I1
tp3101
Rp3102
(I3
S'|'
p3103
NNNI3
I1
I0
tp3104
bS'3.0'
p3105
tp3106
Rp3107
sg31
g3
(g4
(S'S3'
p3108
I0
I1
tp3109
Rp3110
(I3
S'|'
p3111
NNNI3
I1
I0
tp3112
bS'4.4'
p3113
tp3114
Rp3115
sg40
g3
(g4
(S'S10'
p3116
I0
I1
tp3117
Rp3118
(I3
S'|'
p3119
NNNI10
I1
I0
tp3120
bS'versicolor'
p3121
tp3122
Rp3123
sa(dp3124
g2
g3
(g4
(S'S3'
p3125
I0
I1
tp3126
Rp3127
(I3
S'|'
p3128
NNNI3
I1
I0
tp3129
bS'6.8'
p3130
tp3131
Rp3132
sg13
g3
(g4
(S'S3'
p3133
I0
I1
tp3134
Rp3135
(I3
S'|'
p3136
NNNI3
I1
I0
tp3137
bS'1.4'
p3138
tp3139
Rp3140
sg22
g3
(g4
(S'S3'
p3141
I0
I1
tp3142
Rp3143
(I3
S'|'
p3144
NNNI3
I1
I0
tp3145
bS'2.8'
p3146
tp3147
Rp3148
sg31
g3
(g4
(S'S3'
p3149
I0
I1
tp3150
Rp3151
(I3
S'|'
p3152
NNNI3
I1
I0
tp3153
bS'4.8'
p3154
tp3155
Rp3156
sg40
g3
(g4
(S'S10'
p3157
I0
I1
tp3158
Rp3159
(I3
S'|'
p3160
NNNI10
I1
I0
tp3161
bS'versicolor'
p3162
tp3163
Rp3164
sa(dp3165
g2
g3
(g4
(S'S3'
p3166
I0
I1
tp3167
Rp3168
(I3
S'|'
p3169
NNNI3
I1
I0
tp3170
bS'6.7'
p3171
tp3172
Rp3173
sg13
g3
(g4
(S'S3'
p3174
I0
I1
tp3175
Rp3176
(I3
S'|'
p3177
NNNI3
I1
I0
tp3178
bS'1.7'
p3179
tp3180
Rp3181
sg22
g3
(g4
(S'S3'
p3182
I0
I1
tp3183
Rp3184
(I3
S'|'
p3185
NNNI3
I1
I0
tp3186
bS'3.0'
p3187
tp3188
Rp3189
sg31
g3
(g4
(S'S3'
p3190
I0
I1
tp3191
Rp3192
(I3
S'|'
p3193
NNNI3
I1
I0
tp3194
bS'5.0'
p3195
tp3196
Rp3197
sg40
g3
(g4
(S'S10'
p3198
I0
I1
tp3199
Rp3200
(I3
S'|'
p3201
NNNI10
I1
I0
tp3202
bS'versicolor'
p3203
tp3204
Rp3205
sa(dp3206
g2
g3
(g4
(S'S3'
p3207
I0
I1
tp3208
Rp3209
(I3
S'|'
p3210
NNNI3
I1
I0
tp3211
bS'6.0'
p3212
tp3213
Rp3214
sg13
g3
(g4
(S'S3'
p3215
I0
I1
tp3216
Rp3217
(I3
S'|'
p3218
NNNI3
I1
I0
tp3219
bS'1.5'
p3220
tp3221
Rp3222
sg22
g3
(g4
(S'S3'
p3223
I0
I1
tp3224
Rp3225
(I3
S'|'
p3226
NNNI3
I1
I0
tp3227
bS'2.9'
p3228
tp3229
Rp3230
sg31
g3
(g4
(S'S3'
p3231
I0
I1
tp3232
Rp3233
(I3
S'|'
p3234
NNNI3
I1
I0
tp3235
bS'4.5'
p3236
tp3237
Rp3238
sg40
g3
(g4
(S'S10'
p3239
I0
I1
tp3240
Rp3241
(I3
S'|'
p3242
NNNI10
I1
I0
tp3243
bS'versicolor'
p3244
tp3245
Rp3246
sa(dp3247
g2
g3
(g4
(S'S3'
p3248
I0
I1
tp3249
Rp3250
(I3
S'|'
p3251
NNNI3
I1
I0
tp3252
bS'5.7'
p3253
tp3254
Rp3255
sg13
g3
(g4
(S'S3'
p3256
I0
I1
tp3257
Rp3258
(I3
S'|'
p3259
NNNI3
I1
I0
tp3260
bS'1.0'
p3261
tp3262
Rp3263
sg22
g3
(g4
(S'S3'
p3264
I0
I1
tp3265
Rp3266
(I3
S'|'
p3267
NNNI3
I1
I0
tp3268
bS'2.6'
p3269
tp3270
Rp3271
sg31
g3
(g4
(S'S3'
p3272
I0
I1
tp3273
Rp3274
(I3
S'|'
p3275
NNNI3
I1
I0
tp3276
bS'3.5'
p3277
tp3278
Rp3279
sg40
g3
(g4
(S'S10'
p3280
I0
I1
tp3281
Rp3282
(I3
S'|'
p3283
NNNI10
I1
I0
tp3284
bS'versicolor'
p3285
tp3286
Rp3287
sa(dp3288
g2
g3
(g4
(S'S3'
p3289
I0
I1
tp3290
Rp3291
(I3
S'|'
p3292
NNNI3
I1
I0
tp3293
bS'5.5'
p3294
tp3295
Rp3296
sg13
g3
(g4
(S'S3'
p3297
I0
I1
tp3298
Rp3299
(I3
S'|'
p3300
NNNI3
I1
I0
tp3301
bS'1.1'
p3302
tp3303
Rp3304
sg22
g3
(g4
(S'S3'
p3305
I0
I1
tp3306
Rp3307
(I3
S'|'
p3308
NNNI3
I1
I0
tp3309
bS'2.4'
p3310
tp3311
Rp3312
sg31
g3
(g4
(S'S3'
p3313
I0
I1
tp3314
Rp3315
(I3
S'|'
p3316
NNNI3
I1
I0
tp3317
bS'3.8'
p3318
tp3319
Rp3320
sg40
g3
(g4
(S'S10'
p3321
I0
I1
tp3322
Rp3323
(I3
S'|'
p3324
NNNI10
I1
I0
tp3325
bS'versicolor'
p3326
tp3327
Rp3328
sa(dp3329
g2
g3
(g4
(S'S3'
p3330
I0
I1
tp3331
Rp3332
(I3
S'|'
p3333
NNNI3
I1
I0
tp3334
bS'5.5'
p3335
tp3336
Rp3337
sg13
g3
(g4
(S'S3'
p3338
I0
I1
tp3339
Rp3340
(I3
S'|'
p3341
NNNI3
I1
I0
tp3342
bS'1.0'
p3343
tp3344
Rp3345
sg22
g3
(g4
(S'S3'
p3346
I0
I1
tp3347
Rp3348
(I3
S'|'
p3349
NNNI3
I1
I0
tp3350
bS'2.4'
p3351
tp3352
Rp3353
sg31
g3
(g4
(S'S3'
p3354
I0
I1
tp3355
Rp3356
(I3
S'|'
p3357
NNNI3
I1
I0
tp3358
bS'3.7'
p3359
tp3360
Rp3361
sg40
g3
(g4
(S'S10'
p3362
I0
I1
tp3363
Rp3364
(I3
S'|'
p3365
NNNI10
I1
I0
tp3366
bS'versicolor'
p3367
tp3368
Rp3369
sa(dp3370
g2
g3
(g4
(S'S3'
p3371
I0
I1
tp3372
Rp3373
(I3
S'|'
p3374
NNNI3
I1
I0
tp3375
bS'5.8'
p3376
tp3377
Rp3378
sg13
g3
(g4
(S'S3'
p3379
I0
I1
tp3380
Rp3381
(I3
S'|'
p3382
NNNI3
I1
I0
tp3383
bS'1.2'
p3384
tp3385
Rp3386
sg22
g3
(g4
(S'S3'
p3387
I0
I1
tp3388
Rp3389
(I3
S'|'
p3390
NNNI3
I1
I0
tp3391
bS'2.7'
p3392
tp3393
Rp3394
sg31
g3
(g4
(S'S3'
p3395
I0
I1
tp3396
Rp3397
(I3
S'|'
p3398
NNNI3
I1
I0
tp3399
bS'3.9'
p3400
tp3401
Rp3402
sg40
g3
(g4
(S'S10'
p3403
I0
I1
tp3404
Rp3405
(I3
S'|'
p3406
NNNI10
I1
I0
tp3407
bS'versicolor'
p3408
tp3409
Rp3410
sa(dp3411
g2
g3
(g4
(S'S3'
p3412
I0
I1
tp3413
Rp3414
(I3
S'|'
p3415
NNNI3
I1
I0
tp3416
bS'6.0'
p3417
tp3418
Rp3419
sg13
g3
(g4
(S'S3'
p3420
I0
I1
tp3421
Rp3422
(I3
S'|'
p3423
NNNI3
I1
I0
tp3424
bS'1.6'
p3425
tp3426
Rp3427
sg22
g3
(g4
(S'S3'
p3428
I0
I1
tp3429
Rp3430
(I3
S'|'
p3431
NNNI3
I1
I0
tp3432
bS'2.7'
p3433
tp3434
Rp3435
sg31
g3
(g4
(S'S3'
p3436
I0
I1
tp3437
Rp3438
(I3
S'|'
p3439
NNNI3
I1
I0
tp3440
bS'5.1'
p3441
tp3442
Rp3443
sg40
g3
(g4
(S'S10'
p3444
I0
I1
tp3445
Rp3446
(I3
S'|'
p3447
NNNI10
I1
I0
tp3448
bS'versicolor'
p3449
tp3450
Rp3451
sa(dp3452
g2
g3
(g4
(S'S3'
p3453
I0
I1
tp3454
Rp3455
(I3
S'|'
p3456
NNNI3
I1
I0
tp3457
bS'5.4'
p3458
tp3459
Rp3460
sg13
g3
(g4
(S'S3'
p3461
I0
I1
tp3462
Rp3463
(I3
S'|'
p3464
NNNI3
I1
I0
tp3465
bS'1.5'
p3466
tp3467
Rp3468
sg22
g3
(g4
(S'S3'
p3469
I0
I1
tp3470
Rp3471
(I3
S'|'
p3472
NNNI3
I1
I0
tp3473
bS'3.0'
p3474
tp3475
Rp3476
sg31
g3
(g4
(S'S3'
p3477
I0
I1
tp3478
Rp3479
(I3
S'|'
p3480
NNNI3
I1
I0
tp3481
bS'4.5'
p3482
tp3483
Rp3484
sg40
g3
(g4
(S'S10'
p3485
I0
I1
tp3486
Rp3487
(I3
S'|'
p3488
NNNI10
I1
I0
tp3489
bS'versicolor'
p3490
tp3491
Rp3492
sa(dp3493
g2
g3
(g4
(S'S3'
p3494
I0
I1
tp3495
Rp3496
(I3
S'|'
p3497
NNNI3
I1
I0
tp3498
bS'6.0'
p3499
tp3500
Rp3501
sg13
g3
(g4
(S'S3'
p3502
I0
I1
tp3503
Rp3504
(I3
S'|'
p3505
NNNI3
I1
I0
tp3506
bS'1.6'
p3507
tp3508
Rp3509
sg22
g3
(g4
(S'S3'
p3510
I0
I1
tp3511
Rp3512
(I3
S'|'
p3513
NNNI3
I1
I0
tp3514
bS'3.4'
p3515
tp3516
Rp3517
sg31
g3
(g4
(S'S3'
p3518
I0
I1
tp3519
Rp3520
(I3
S'|'
p3521
NNNI3
I1
I0
tp3522
bS'4.5'
p3523
tp3524
Rp3525
sg40
g3
(g4
(S'S10'
p3526
I0
I1
tp3527
Rp3528
(I3
S'|'
p3529
NNNI10
I1
I0
tp3530
bS'versicolor'
p3531
tp3532
Rp3533
sa(dp3534
g2
g3
(g4
(S'S3'
p3535
I0
I1
tp3536
Rp3537
(I3
S'|'
p3538
NNNI3
I1
I0
tp3539
bS'6.7'
p3540
tp3541
Rp3542
sg13
g3
(g4
(S'S3'
p3543
I0
I1
tp3544
Rp3545
(I3
S'|'
p3546
NNNI3
I1
I0
tp3547
bS'1.5'
p3548
tp3549
Rp3550
sg22
g3
(g4
(S'S3'
p3551
I0
I1
tp3552
Rp3553
(I3
S'|'
p3554
NNNI3
I1
I0
tp3555
bS'3.1'
p3556
tp3557
Rp3558
sg31
g3
(g4
(S'S3'
p3559
I0
I1
tp3560
Rp3561
(I3
S'|'
p3562
NNNI3
I1
I0
tp3563
bS'4.7'
p3564
tp3565
Rp3566
sg40
g3
(g4
(S'S10'
p3567
I0
I1
tp3568
Rp3569
(I3
S'|'
p3570
NNNI10
I1
I0
tp3571
bS'versicolor'
p3572
tp3573
Rp3574
sa(dp3575
g2
g3
(g4
(S'S3'
p3576
I0
I1
tp3577
Rp3578
(I3
S'|'
p3579
NNNI3
I1
I0
tp3580
bS'6.3'
p3581
tp3582
Rp3583
sg13
g3
(g4
(S'S3'
p3584
I0
I1
tp3585
Rp3586
(I3
S'|'
p3587
NNNI3
I1
I0
tp3588
bS'1.3'
p3589
tp3590
Rp3591
sg22
g3
(g4
(S'S3'
p3592
I0
I1
tp3593
Rp3594
(I3
S'|'
p3595
NNNI3
I1
I0
tp3596
bS'2.3'
p3597
tp3598
Rp3599
sg31
g3
(g4
(S'S3'
p3600
I0
I1
tp3601
Rp3602
(I3
S'|'
p3603
NNNI3
I1
I0
tp3604
bS'4.4'
p3605
tp3606
Rp3607
sg40
g3
(g4
(S'S10'
p3608
I0
I1
tp3609
Rp3610
(I3
S'|'
p3611
NNNI10
I1
I0
tp3612
bS'versicolor'
p3613
tp3614
Rp3615
sa(dp3616
g2
g3
(g4
(S'S3'
p3617
I0
I1
tp3618
Rp3619
(I3
S'|'
p3620
NNNI3
I1
I0
tp3621
bS'5.6'
p3622
tp3623
Rp3624
sg13
g3
(g4
(S'S3'
p3625
I0
I1
tp3626
Rp3627
(I3
S'|'
p3628
NNNI3
I1
I0
tp3629
bS'1.3'
p3630
tp3631
Rp3632
sg22
g3
(g4
(S'S3'
p3633
I0
I1
tp3634
Rp3635
(I3
S'|'
p3636
NNNI3
I1
I0
tp3637
bS'3.0'
p3638
tp3639
Rp3640
sg31
g3
(g4
(S'S3'
p3641
I0
I1
tp3642
Rp3643
(I3
S'|'
p3644
NNNI3
I1
I0
tp3645
bS'4.1'
p3646
tp3647
Rp3648
sg40
g3
(g4
(S'S10'
p3649
I0
I1
tp3650
Rp3651
(I3
S'|'
p3652
NNNI10
I1
I0
tp3653
bS'versicolor'
p3654
tp3655
Rp3656
sa(dp3657
g2
g3
(g4
(S'S3'
p3658
I0
I1
tp3659
Rp3660
(I3
S'|'
p3661
NNNI3
I1
I0
tp3662
bS'5.5'
p3663
tp3664
Rp3665
sg13
g3
(g4
(S'S3'
p3666
I0
I1
tp3667
Rp3668
(I3
S'|'
p3669
NNNI3
I1
I0
tp3670
bS'1.3'
p3671
tp3672
Rp3673
sg22
g3
(g4
(S'S3'
p3674
I0
I1
tp3675
Rp3676
(I3
S'|'
p3677
NNNI3
I1
I0
tp3678
bS'2.5'
p3679
tp3680
Rp3681
sg31
g3
(g4
(S'S3'
p3682
I0
I1
tp3683
Rp3684
(I3
S'|'
p3685
NNNI3
I1
I0
tp3686
bS'4.0'
p3687
tp3688
Rp3689
sg40
g3
(g4
(S'S10'
p3690
I0
I1
tp3691
Rp3692
(I3
S'|'
p3693
NNNI10
I1
I0
tp3694
bS'versicolor'
p3695
tp3696
Rp3697
sa(dp3698
g2
g3
(g4
(S'S3'
p3699
I0
I1
tp3700
Rp3701
(I3
S'|'
p3702
NNNI3
I1
I0
tp3703
bS'5.5'
p3704
tp3705
Rp3706
sg13
g3
(g4
(S'S3'
p3707
I0
I1
tp3708
Rp3709
(I3
S'|'
p3710
NNNI3
I1
I0
tp3711
bS'1.2'
p3712
tp3713
Rp3714
sg22
g3
(g4
(S'S3'
p3715
I0
I1
tp3716
Rp3717
(I3
S'|'
p3718
NNNI3
I1
I0
tp3719
bS'2.6'
p3720
tp3721
Rp3722
sg31
g3
(g4
(S'S3'
p3723
I0
I1
tp3724
Rp3725
(I3
S'|'
p3726
NNNI3
I1
I0
tp3727
bS'4.4'
p3728
tp3729
Rp3730
sg40
g3
(g4
(S'S10'
p3731
I0
I1
tp3732
Rp3733
(I3
S'|'
p3734
NNNI10
I1
I0
tp3735
bS'versicolor'
p3736
tp3737
Rp3738
sa(dp3739
g2
g3
(g4
(S'S3'
p3740
I0
I1
tp3741
Rp3742
(I3
S'|'
p3743
NNNI3
I1
I0
tp3744
bS'6.1'
p3745
tp3746
Rp3747
sg13
g3
(g4
(S'S3'
p3748
I0
I1
tp3749
Rp3750
(I3
S'|'
p3751
NNNI3
I1
I0
tp3752
bS'1.4'
p3753
tp3754
Rp3755
sg22
g3
(g4
(S'S3'
p3756
I0
I1
tp3757
Rp3758
(I3
S'|'
p3759
NNNI3
I1
I0
tp3760
bS'3.0'
p3761
tp3762
Rp3763
sg31
g3
(g4
(S'S3'
p3764
I0
I1
tp3765
Rp3766
(I3
S'|'
p3767
NNNI3
I1
I0
tp3768
bS'4.6'
p3769
tp3770
Rp3771
sg40
g3
(g4
(S'S10'
p3772
I0
I1
tp3773
Rp3774
(I3
S'|'
p3775
NNNI10
I1
I0
tp3776
bS'versicolor'
p3777
tp3778
Rp3779
sa(dp3780
g2
g3
(g4
(S'S3'
p3781
I0
I1
tp3782
Rp3783
(I3
S'|'
p3784
NNNI3
I1
I0
tp3785
bS'5.8'
p3786
tp3787
Rp3788
sg13
g3
(g4
(S'S3'
p3789
I0
I1
tp3790
Rp3791
(I3
S'|'
p3792
NNNI3
I1
I0
tp3793
bS'1.2'
p3794
tp3795
Rp3796
sg22
g3
(g4
(S'S3'
p3797
I0
I1
tp3798
Rp3799
(I3
S'|'
p3800
NNNI3
I1
I0
tp3801
bS'2.6'
p3802
tp3803
Rp3804
sg31
g3
(g4
(S'S3'
p3805
I0
I1
tp3806
Rp3807
(I3
S'|'
p3808
NNNI3
I1
I0
tp3809
bS'4.0'
p3810
tp3811
Rp3812
sg40
g3
(g4
(S'S10'
p3813
I0
I1
tp3814
Rp3815
(I3
S'|'
p3816
NNNI10
I1
I0
tp3817
bS'versicolor'
p3818
tp3819
Rp3820
sa(dp3821
g2
g3
(g4
(S'S3'
p3822
I0
I1
tp3823
Rp3824
(I3
S'|'
p3825
NNNI3
I1
I0
tp3826
bS'5.0'
p3827
tp3828
Rp3829
sg13
g3
(g4
(S'S3'
p3830
I0
I1
tp3831
Rp3832
(I3
S'|'
p3833
NNNI3
I1
I0
tp3834
bS'1.0'
p3835
tp3836
Rp3837
sg22
g3
(g4
(S'S3'
p3838
I0
I1
tp3839
Rp3840
(I3
S'|'
p3841
NNNI3
I1
I0
tp3842
bS'2.3'
p3843
tp3844
Rp3845
sg31
g3
(g4
(S'S3'
p3846
I0
I1
tp3847
Rp3848
(I3
S'|'
p3849
NNNI3
I1
I0
tp3850
bS'3.3'
p3851
tp3852
Rp3853
sg40
g3
(g4
(S'S10'
p3854
I0
I1
tp3855
Rp3856
(I3
S'|'
p3857
NNNI10
I1
I0
tp3858
bS'versicolor'
p3859
tp3860
Rp3861
sa(dp3862
g2
g3
(g4
(S'S3'
p3863
I0
I1
tp3864
Rp3865
(I3
S'|'
p3866
NNNI3
I1
I0
tp3867
bS'5.6'
p3868
tp3869
Rp3870
sg13
g3
(g4
(S'S3'
p3871
I0
I1
tp3872
Rp3873
(I3
S'|'
p3874
NNNI3
I1
I0
tp3875
bS'1.3'
p3876
tp3877
Rp3878
sg22
g3
(g4
(S'S3'
p3879
I0
I1
tp3880
Rp3881
(I3
S'|'
p3882
NNNI3
I1
I0
tp3883
bS'2.7'
p3884
tp3885
Rp3886
sg31
g3
(g4
(S'S3'
p3887
I0
I1
tp3888
Rp3889
(I3
S'|'
p3890
NNNI3
I1
I0
tp3891
bS'4.2'
p3892
tp3893
Rp3894
sg40
g3
(g4
(S'S10'
p3895
I0
I1
tp3896
Rp3897
(I3
S'|'
p3898
NNNI10
I1
I0
tp3899
bS'versicolor'
p3900
tp3901
Rp3902
sa(dp3903
g2
g3
(g4
(S'S3'
p3904
I0
I1
tp3905
Rp3906
(I3
S'|'
p3907
NNNI3
I1
I0
tp3908
bS'5.7'
p3909
tp3910
Rp3911
sg13
g3
(g4
(S'S3'
p3912
I0
I1
tp3913
Rp3914
(I3
S'|'
p3915
NNNI3
I1
I0
tp3916
bS'1.2'
p3917
tp3918
Rp3919
sg22
g3
(g4
(S'S3'
p3920
I0
I1
tp3921
Rp3922
(I3
S'|'
p3923
NNNI3
I1
I0
tp3924
bS'3.0'
p3925
tp3926
Rp3927
sg31
g3
(g4
(S'S3'
p3928
I0
I1
tp3929
Rp3930
(I3
S'|'
p3931
NNNI3
I1
I0
tp3932
bS'4.2'
p3933
tp3934
Rp3935
sg40
g3
(g4
(S'S10'
p3936
I0
I1
tp3937
Rp3938
(I3
S'|'
p3939
NNNI10
I1
I0
tp3940
bS'versicolor'
p3941
tp3942
Rp3943
sa(dp3944
g2
g3
(g4
(S'S3'
p3945
I0
I1
tp3946
Rp3947
(I3
S'|'
p3948
NNNI3
I1
I0
tp3949
bS'5.7'
p3950
tp3951
Rp3952
sg13
g3
(g4
(S'S3'
p3953
I0
I1
tp3954
Rp3955
(I3
S'|'
p3956
NNNI3
I1
I0
tp3957
bS'1.3'
p3958
tp3959
Rp3960
sg22
g3
(g4
(S'S3'
p3961
I0
I1
tp3962
Rp3963
(I3
S'|'
p3964
NNNI3
I1
I0
tp3965
bS'2.9'
p3966
tp3967
Rp3968
sg31
g3
(g4
(S'S3'
p3969
I0
I1
tp3970
Rp3971
(I3
S'|'
p3972
NNNI3
I1
I0
tp3973
bS'4.2'
p3974
tp3975
Rp3976
sg40
g3
(g4
(S'S10'
p3977
I0
I1
tp3978
Rp3979
(I3
S'|'
p3980
NNNI10
I1
I0
tp3981
bS'versicolor'
p3982
tp3983
Rp3984
sa(dp3985
g2
g3
(g4
(S'S3'
p3986
I0
I1
tp3987
Rp3988
(I3
S'|'
p3989
NNNI3
I1
I0
tp3990
bS'6.2'
p3991
tp3992
Rp3993
sg13
g3
(g4
(S'S3'
p3994
I0
I1
tp3995
Rp3996
(I3
S'|'
p3997
NNNI3
I1
I0
tp3998
bS'1.3'
p3999
tp4000
Rp4001
sg22
g3
(g4
(S'S3'
p4002
I0
I1
tp4003
Rp4004
(I3
S'|'
p4005
NNNI3
I1
I0
tp4006
bS'2.9'
p4007
tp4008
Rp4009
sg31
g3
(g4
(S'S3'
p4010
I0
I1
tp4011
Rp4012
(I3
S'|'
p4013
NNNI3
I1
I0
tp4014
bS'4.3'
p4015
tp4016
Rp4017
sg40
g3
(g4
(S'S10'
p4018
I0
I1
tp4019
Rp4020
(I3
S'|'
p4021
NNNI10
I1
I0
tp4022
bS'versicolor'
p4023
tp4024
Rp4025
sa(dp4026
g2
g3
(g4
(S'S3'
p4027
I0
I1
tp4028
Rp4029
(I3
S'|'
p4030
NNNI3
I1
I0
tp4031
bS'5.1'
p4032
tp4033
Rp4034
sg13
g3
(g4
(S'S3'
p4035
I0
I1
tp4036
Rp4037
(I3
S'|'
p4038
NNNI3
I1
I0
tp4039
bS'1.1'
p4040
tp4041
Rp4042
sg22
g3
(g4
(S'S3'
p4043
I0
I1
tp4044
Rp4045
(I3
S'|'
p4046
NNNI3
I1
I0
tp4047
bS'2.5'
p4048
tp4049
Rp4050
sg31
g3
(g4
(S'S3'
p4051
I0
I1
tp4052
Rp4053
(I3
S'|'
p4054
NNNI3
I1
I0
tp4055
bS'3.0'
p4056
tp4057
Rp4058
sg40
g3
(g4
(S'S10'
p4059
I0
I1
tp4060
Rp4061
(I3
S'|'
p4062
NNNI10
I1
I0
tp4063
bS'versicolor'
p4064
tp4065
Rp4066
sa(dp4067
g2
g3
(g4
(S'S3'
p4068
I0
I1
tp4069
Rp4070
(I3
S'|'
p4071
NNNI3
I1
I0
tp4072
bS'5.7'
p4073
tp4074
Rp4075
sg13
g3
(g4
(S'S3'
p4076
I0
I1
tp4077
Rp4078
(I3
S'|'
p4079
NNNI3
I1
I0
tp4080
bS'1.3'
p4081
tp4082
Rp4083
sg22
g3
(g4
(S'S3'
p4084
I0
I1
tp4085
Rp4086
(I3
S'|'
p4087
NNNI3
I1
I0
tp4088
bS'2.8'
p4089
tp4090
Rp4091
sg31
g3
(g4
(S'S3'
p4092
I0
I1
tp4093
Rp4094
(I3
S'|'
p4095
NNNI3
I1
I0
tp4096
bS'4.1'
p4097
tp4098
Rp4099
sg40
g3
(g4
(S'S10'
p4100
I0
I1
tp4101
Rp4102
(I3
S'|'
p4103
NNNI10
I1
I0
tp4104
bS'versicolor'
p4105
tp4106
Rp4107
sa(dp4108
g2
g3
(g4
(S'S3'
p4109
I0
I1
tp4110
Rp4111
(I3
S'|'
p4112
NNNI3
I1
I0
tp4113
bS'6.3'
p4114
tp4115
Rp4116
sg13
g3
(g4
(S'S3'
p4117
I0
I1
tp4118
Rp4119
(I3
S'|'
p4120
NNNI3
I1
I0
tp4121
bS'2.5'
p4122
tp4123
Rp4124
sg22
g3
(g4
(S'S3'
p4125
I0
I1
tp4126
Rp4127
(I3
S'|'
p4128
NNNI3
I1
I0
tp4129
bS'3.3'
p4130
tp4131
Rp4132
sg31
g3
(g4
(S'S3'
p4133
I0
I1
tp4134
Rp4135
(I3
S'|'
p4136
NNNI3
I1
I0
tp4137
bS'6.0'
p4138
tp4139
Rp4140
sg40
g3
(g4
(S'S9'
p4141
I0
I1
tp4142
Rp4143
(I3
S'|'
p4144
NNNI9
I1
I0
tp4145
bS'virginica'
p4146
tp4147
Rp4148
sa(dp4149
g2
g3
(g4
(S'S3'
p4150
I0
I1
tp4151
Rp4152
(I3
S'|'
p4153
NNNI3
I1
I0
tp4154
bS'5.8'
p4155
tp4156
Rp4157
sg13
g3
(g4
(S'S3'
p4158
I0
I1
tp4159
Rp4160
(I3
S'|'
p4161
NNNI3
I1
I0
tp4162
bS'1.9'
p4163
tp4164
Rp4165
sg22
g3
(g4
(S'S3'
p4166
I0
I1
tp4167
Rp4168
(I3
S'|'
p4169
NNNI3
I1
I0
tp4170
bS'2.7'
p4171
tp4172
Rp4173
sg31
g3
(g4
(S'S3'
p4174
I0
I1
tp4175
Rp4176
(I3
S'|'
p4177
NNNI3
I1
I0
tp4178
bS'5.1'
p4179
tp4180
Rp4181
sg40
g3
(g4
(S'S9'
p4182
I0
I1
tp4183
Rp4184
(I3
S'|'
p4185
NNNI9
I1
I0
tp4186
bS'virginica'
p4187
tp4188
Rp4189
sa(dp4190
g2
g3
(g4
(S'S3'
p4191
I0
I1
tp4192
Rp4193
(I3
S'|'
p4194
NNNI3
I1
I0
tp4195
bS'7.1'
p4196
tp4197
Rp4198
sg13
g3
(g4
(S'S3'
p4199
I0
I1
tp4200
Rp4201
(I3
S'|'
p4202
NNNI3
I1
I0
tp4203
bS'2.1'
p4204
tp4205
Rp4206
sg22
g3
(g4
(S'S3'
p4207
I0
I1
tp4208
Rp4209
(I3
S'|'
p4210
NNNI3
I1
I0
tp4211
bS'3.0'
p4212
tp4213
Rp4214
sg31
g3
(g4
(S'S3'
p4215
I0
I1
tp4216
Rp4217
(I3
S'|'
p4218
NNNI3
I1
I0
tp4219
bS'5.9'
p4220
tp4221
Rp4222
sg40
g3
(g4
(S'S9'
p4223
I0
I1
tp4224
Rp4225
(I3
S'|'
p4226
NNNI9
I1
I0
tp4227
bS'virginica'
p4228
tp4229
Rp4230
sa(dp4231
g2
g3
(g4
(S'S3'
p4232
I0
I1
tp4233
Rp4234
(I3
S'|'
p4235
NNNI3
I1
I0
tp4236
bS'6.3'
p4237
tp4238
Rp4239
sg13
g3
(g4
(S'S3'
p4240
I0
I1
tp4241
Rp4242
(I3
S'|'
p4243
NNNI3
I1
I0
tp4244
bS'1.8'
p4245
tp4246
Rp4247
sg22
g3
(g4
(S'S3'
p4248
I0
I1
tp4249
Rp4250
(I3
S'|'
p4251
NNNI3
I1
I0
tp4252
bS'2.9'
p4253
tp4254
Rp4255
sg31
g3
(g4
(S'S3'
p4256
I0
I1
tp4257
Rp4258
(I3
S'|'
p4259
NNNI3
I1
I0
tp4260
bS'5.6'
p4261
tp4262
Rp4263
sg40
g3
(g4
(S'S9'
p4264
I0
I1
tp4265
Rp4266
(I3
S'|'
p4267
NNNI9
I1
I0
tp4268
bS'virginica'
p4269
tp4270
Rp4271
sa(dp4272
g2
g3
(g4
(S'S3'
p4273
I0
I1
tp4274
Rp4275
(I3
S'|'
p4276
NNNI3
I1
I0
tp4277
bS'6.5'
p4278
tp4279
Rp4280
sg13
g3
(g4
(S'S3'
p4281
I0
I1
tp4282
Rp4283
(I3
S'|'
p4284
NNNI3
I1
I0
tp4285
bS'2.2'
p4286
tp4287
Rp4288
sg22
g3
(g4
(S'S3'
p4289
I0
I1
tp4290
Rp4291
(I3
S'|'
p4292
NNNI3
I1
I0
tp4293
bS'3.0'
p4294
tp4295
Rp4296
sg31
g3
(g4
(S'S3'
p4297
I0
I1
tp4298
Rp4299
(I3
S'|'
p4300
NNNI3
I1
I0
tp4301
bS'5.8'
p4302
tp4303
Rp4304
sg40
g3
(g4
(S'S9'
p4305
I0
I1
tp4306
Rp4307
(I3
S'|'
p4308
NNNI9
I1
I0
tp4309
bS'virginica'
p4310
tp4311
Rp4312
sa(dp4313
g2
g3
(g4
(S'S3'
p4314
I0
I1
tp4315
Rp4316
(I3
S'|'
p4317
NNNI3
I1
I0
tp4318
bS'7.6'
p4319
tp4320
Rp4321
sg13
g3
(g4
(S'S3'
p4322
I0
I1
tp4323
Rp4324
(I3
S'|'
p4325
NNNI3
I1
I0
tp4326
bS'2.1'
p4327
tp4328
Rp4329
sg22
g3
(g4
(S'S3'
p4330
I0
I1
tp4331
Rp4332
(I3
S'|'
p4333
NNNI3
I1
I0
tp4334
bS'3.0'
p4335
tp4336
Rp4337
sg31
g3
(g4
(S'S3'
p4338
I0
I1
tp4339
Rp4340
(I3
S'|'
p4341
NNNI3
I1
I0
tp4342
bS'6.6'
p4343
tp4344
Rp4345
sg40
g3
(g4
(S'S9'
p4346
I0
I1
tp4347
Rp4348
(I3
S'|'
p4349
NNNI9
I1
I0
tp4350
bS'virginica'
p4351
tp4352
Rp4353
sa(dp4354
g2
g3
(g4
(S'S3'
p4355
I0
I1
tp4356
Rp4357
(I3
S'|'
p4358
NNNI3
I1
I0
tp4359
bS'4.9'
p4360
tp4361
Rp4362
sg13
g3
(g4
(S'S3'
p4363
I0
I1
tp4364
Rp4365
(I3
S'|'
p4366
NNNI3
I1
I0
tp4367
bS'1.7'
p4368
tp4369
Rp4370
sg22
g3
(g4
(S'S3'
p4371
I0
I1
tp4372
Rp4373
(I3
S'|'
p4374
NNNI3
I1
I0
tp4375
bS'2.5'
p4376
tp4377
Rp4378
sg31
g3
(g4
(S'S3'
p4379
I0
I1
tp4380
Rp4381
(I3
S'|'
p4382
NNNI3
I1
I0
tp4383
bS'4.5'
p4384
tp4385
Rp4386
sg40
g3
(g4
(S'S9'
p4387
I0
I1
tp4388
Rp4389
(I3
S'|'
p4390
NNNI9
I1
I0
tp4391
bS'virginica'
p4392
tp4393
Rp4394
sa(dp4395
g2
g3
(g4
(S'S3'
p4396
I0
I1
tp4397
Rp4398
(I3
S'|'
p4399
NNNI3
I1
I0
tp4400
bS'7.3'
p4401
tp4402
Rp4403
sg13
g3
(g4
(S'S3'
p4404
I0
I1
tp4405
Rp4406
(I3
S'|'
p4407
NNNI3
I1
I0
tp4408
bS'1.8'
p4409
tp4410
Rp4411
sg22
g3
(g4
(S'S3'
p4412
I0
I1
tp4413
Rp4414
(I3
S'|'
p4415
NNNI3
I1
I0
tp4416
bS'2.9'
p4417
tp4418
Rp4419
sg31
g3
(g4
(S'S3'
p4420
I0
I1
tp4421
Rp4422
(I3
S'|'
p4423
NNNI3
I1
I0
tp4424
bS'6.3'
p4425
tp4426
Rp4427
sg40
g3
(g4
(S'S9'
p4428
I0
I1
tp4429
Rp4430
(I3
S'|'
p4431
NNNI9
I1
I0
tp4432
bS'virginica'
p4433
tp4434
Rp4435
sa(dp4436
g2
g3
(g4
(S'S3'
p4437
I0
I1
tp4438
Rp4439
(I3
S'|'
p4440
NNNI3
I1
I0
tp4441
bS'6.7'
p4442
tp4443
Rp4444
sg13
g3
(g4
(S'S3'
p4445
I0
I1
tp4446
Rp4447
(I3
S'|'
p4448
NNNI3
I1
I0
tp4449
bS'1.8'
p4450
tp4451
Rp4452
sg22
g3
(g4
(S'S3'
p4453
I0
I1
tp4454
Rp4455
(I3
S'|'
p4456
NNNI3
I1
I0
tp4457
bS'2.5'
p4458
tp4459
Rp4460
sg31
g3
(g4
(S'S3'
p4461
I0
I1
tp4462
Rp4463
(I3
S'|'
p4464
NNNI3
I1
I0
tp4465
bS'5.8'
p4466
tp4467
Rp4468
sg40
g3
(g4
(S'S9'
p4469
I0
I1
tp4470
Rp4471
(I3
S'|'
p4472
NNNI9
I1
I0
tp4473
bS'virginica'
p4474
tp4475
Rp4476
sa(dp4477
g2
g3
(g4
(S'S3'
p4478
I0
I1
tp4479
Rp4480
(I3
S'|'
p4481
NNNI3
I1
I0
tp4482
bS'7.2'
p4483
tp4484
Rp4485
sg13
g3
(g4
(S'S3'
p4486
I0
I1
tp4487
Rp4488
(I3
S'|'
p4489
NNNI3
I1
I0
tp4490
bS'2.5'
p4491
tp4492
Rp4493
sg22
g3
(g4
(S'S3'
p4494
I0
I1
tp4495
Rp4496
(I3
S'|'
p4497
NNNI3
I1
I0
tp4498
bS'3.6'
p4499
tp4500
Rp4501
sg31
g3
(g4
(S'S3'
p4502
I0
I1
tp4503
Rp4504
(I3
S'|'
p4505
NNNI3
I1
I0
tp4506
bS'6.1'
p4507
tp4508
Rp4509
sg40
g3
(g4
(S'S9'
p4510
I0
I1
tp4511
Rp4512
(I3
S'|'
p4513
NNNI9
I1
I0
tp4514
bS'virginica'
p4515
tp4516
Rp4517
sa(dp4518
g2
g3
(g4
(S'S3'
p4519
I0
I1
tp4520
Rp4521
(I3
S'|'
p4522
NNNI3
I1
I0
tp4523
bS'6.5'
p4524
tp4525
Rp4526
sg13
g3
(g4
(S'S3'
p4527
I0
I1
tp4528
Rp4529
(I3
S'|'
p4530
NNNI3
I1
I0
tp4531
bS'2.0'
p4532
tp4533
Rp4534
sg22
g3
(g4
(S'S3'
p4535
I0
I1
tp4536
Rp4537
(I3
S'|'
p4538
NNNI3
I1
I0
tp4539
bS'3.2'
p4540
tp4541
Rp4542
sg31
g3
(g4
(S'S3'
p4543
I0
I1
tp4544
Rp4545
(I3
S'|'
p4546
NNNI3
I1
I0
tp4547
bS'5.1'
p4548
tp4549
Rp4550
sg40
g3
(g4
(S'S9'
p4551
I0
I1
tp4552
Rp4553
(I3
S'|'
p4554
NNNI9
I1
I0
tp4555
bS'virginica'
p4556
tp4557
Rp4558
sa(dp4559
g2
g3
(g4
(S'S3'
p4560
I0
I1
tp4561
Rp4562
(I3
S'|'
p4563
NNNI3
I1
I0
tp4564
bS'6.4'
p4565
tp4566
Rp4567
sg13
g3
(g4
(S'S3'
p4568
I0
I1
tp4569
Rp4570
(I3
S'|'
p4571
NNNI3
I1
I0
tp4572
bS'1.9'
p4573
tp4574
Rp4575
sg22
g3
(g4
(S'S3'
p4576
I0
I1
tp4577
Rp4578
(I3
S'|'
p4579
NNNI3
I1
I0
tp4580
bS'2.7'
p4581
tp4582
Rp4583
sg31
g3
(g4
(S'S3'
p4584
I0
I1
tp4585
Rp4586
(I3
S'|'
p4587
NNNI3
I1
I0
tp4588
bS'5.3'
p4589
tp4590
Rp4591
sg40
g3
(g4
(S'S9'
p4592
I0
I1
tp4593
Rp4594
(I3
S'|'
p4595
NNNI9
I1
I0
tp4596
bS'virginica'
p4597
tp4598
Rp4599
sa(dp4600
g2
g3
(g4
(S'S3'
p4601
I0
I1
tp4602
Rp4603
(I3
S'|'
p4604
NNNI3
I1
I0
tp4605
bS'6.8'
p4606
tp4607
Rp4608
sg13
g3
(g4
(S'S3'
p4609
I0
I1
tp4610
Rp4611
(I3
S'|'
p4612
NNNI3
I1
I0
tp4613
bS'2.1'
p4614
tp4615
Rp4616
sg22
g3
(g4
(S'S3'
p4617
I0
I1
tp4618
Rp4619
(I3
S'|'
p4620
NNNI3
I1
I0
tp4621
bS'3.0'
p4622
tp4623
Rp4624
sg31
g3
(g4
(S'S3'
p4625
I0
I1
tp4626
Rp4627
(I3
S'|'
p4628
NNNI3
I1
I0
tp4629
bS'5.5'
p4630
tp4631
Rp4632
sg40
g3
(g4
(S'S9'
p4633
I0
I1
tp4634
Rp4635
(I3
S'|'
p4636
NNNI9
I1
I0
tp4637
bS'virginica'
p4638
tp4639
Rp4640
sa(dp4641
g2
g3
(g4
(S'S3'
p4642
I0
I1
tp4643
Rp4644
(I3
S'|'
p4645
NNNI3
I1
I0
tp4646
bS'5.7'
p4647
tp4648
Rp4649
sg13
g3
(g4
(S'S3'
p4650
I0
I1
tp4651
Rp4652
(I3
S'|'
p4653
NNNI3
I1
I0
tp4654
bS'2.0'
p4655
tp4656
Rp4657
sg22
g3
(g4
(S'S3'
p4658
I0
I1
tp4659
Rp4660
(I3
S'|'
p4661
NNNI3
I1
I0
tp4662
bS'2.5'
p4663
tp4664
Rp4665
sg31
g3
(g4
(S'S3'
p4666
I0
I1
tp4667
Rp4668
(I3
S'|'
p4669
NNNI3
I1
I0
tp4670
bS'5.0'
p4671
tp4672
Rp4673
sg40
g3
(g4
(S'S9'
p4674
I0
I1
tp4675
Rp4676
(I3
S'|'
p4677
NNNI9
I1
I0
tp4678
bS'virginica'
p4679
tp4680
Rp4681
sa(dp4682
g2
g3
(g4
(S'S3'
p4683
I0
I1
tp4684
Rp4685
(I3
S'|'
p4686
NNNI3
I1
I0
tp4687
bS'5.8'
p4688
tp4689
Rp4690
sg13
g3
(g4
(S'S3'
p4691
I0
I1
tp4692
Rp4693
(I3
S'|'
p4694
NNNI3
I1
I0
tp4695
bS'2.4'
p4696
tp4697
Rp4698
sg22
g3
(g4
(S'S3'
p4699
I0
I1
tp4700
Rp4701
(I3
S'|'
p4702
NNNI3
I1
I0
tp4703
bS'2.8'
p4704
tp4705
Rp4706
sg31
g3
(g4
(S'S3'
p4707
I0
I1
tp4708
Rp4709
(I3
S'|'
p4710
NNNI3
I1
I0
tp4711
bS'5.1'
p4712
tp4713
Rp4714
sg40
g3
(g4
(S'S9'
p4715
I0
I1
tp4716
Rp4717
(I3
S'|'
p4718
NNNI9
I1
I0
tp4719
bS'virginica'
p4720
tp4721
Rp4722
sa(dp4723
g2
g3
(g4
(S'S3'
p4724
I0
I1
tp4725
Rp4726
(I3
S'|'
p4727
NNNI3
I1
I0
tp4728
bS'6.4'
p4729
tp4730
Rp4731
sg13
g3
(g4
(S'S3'
p4732
I0
I1
tp4733
Rp4734
(I3
S'|'
p4735
NNNI3
I1
I0
tp4736
bS'2.3'
p4737
tp4738
Rp4739
sg22
g3
(g4
(S'S3'
p4740
I0
I1
tp4741
Rp4742
(I3
S'|'
p4743
NNNI3
I1
I0
tp4744
bS'3.2'
p4745
tp4746
Rp4747
sg31
g3
(g4
(S'S3'
p4748
I0
I1
tp4749
Rp4750
(I3
S'|'
p4751
NNNI3
I1
I0
tp4752
bS'5.3'
p4753
tp4754
Rp4755
sg40
g3
(g4
(S'S9'
p4756
I0
I1
tp4757
Rp4758
(I3
S'|'
p4759
NNNI9
I1
I0
tp4760
bS'virginica'
p4761
tp4762
Rp4763
sa(dp4764
g2
g3
(g4
(S'S3'
p4765
I0
I1
tp4766
Rp4767
(I3
S'|'
p4768
NNNI3
I1
I0
tp4769
bS'6.5'
p4770
tp4771
Rp4772
sg13
g3
(g4
(S'S3'
p4773
I0
I1
tp4774
Rp4775
(I3
S'|'
p4776
NNNI3
I1
I0
tp4777
bS'1.8'
p4778
tp4779
Rp4780
sg22
g3
(g4
(S'S3'
p4781
I0
I1
tp4782
Rp4783
(I3
S'|'
p4784
NNNI3
I1
I0
tp4785
bS'3.0'
p4786
tp4787
Rp4788
sg31
g3
(g4
(S'S3'
p4789
I0
I1
tp4790
Rp4791
(I3
S'|'
p4792
NNNI3
I1
I0
tp4793
bS'5.5'
p4794
tp4795
Rp4796
sg40
g3
(g4
(S'S9'
p4797
I0
I1
tp4798
Rp4799
(I3
S'|'
p4800
NNNI9
I1
I0
tp4801
bS'virginica'
p4802
tp4803
Rp4804
sa(dp4805
g2
g3
(g4
(S'S3'
p4806
I0
I1
tp4807
Rp4808
(I3
S'|'
p4809
NNNI3
I1
I0
tp4810
bS'7.7'
p4811
tp4812
Rp4813
sg13
g3
(g4
(S'S3'
p4814
I0
I1
tp4815
Rp4816
(I3
S'|'
p4817
NNNI3
I1
I0
tp4818
bS'2.2'
p4819
tp4820
Rp4821
sg22
g3
(g4
(S'S3'
p4822
I0
I1
tp4823
Rp4824
(I3
S'|'
p4825
NNNI3
I1
I0
tp4826
bS'3.8'
p4827
tp4828
Rp4829
sg31
g3
(g4
(S'S3'
p4830
I0
I1
tp4831
Rp4832
(I3
S'|'
p4833
NNNI3
I1
I0
tp4834
bS'6.7'
p4835
tp4836
Rp4837
sg40
g3
(g4
(S'S9'
p4838
I0
I1
tp4839
Rp4840
(I3
S'|'
p4841
NNNI9
I1
I0
tp4842
bS'virginica'
p4843
tp4844
Rp4845
sa(dp4846
g2
g3
(g4
(S'S3'
p4847
I0
I1
tp4848
Rp4849
(I3
S'|'
p4850
NNNI3
I1
I0
tp4851
bS'7.7'
p4852
tp4853
Rp4854
sg13
g3
(g4
(S'S3'
p4855
I0
I1
tp4856
Rp4857
(I3
S'|'
p4858
NNNI3
I1
I0
tp4859
bS'2.3'
p4860
tp4861
Rp4862
sg22
g3
(g4
(S'S3'
p4863
I0
I1
tp4864
Rp4865
(I3
S'|'
p4866
NNNI3
I1
I0
tp4867
bS'2.6'
p4868
tp4869
Rp4870
sg31
g3
(g4
(S'S3'
p4871
I0
I1
tp4872
Rp4873
(I3
S'|'
p4874
NNNI3
I1
I0
tp4875
bS'6.9'
p4876
tp4877
Rp4878
sg40
g3
(g4
(S'S9'
p4879
I0
I1
tp4880
Rp4881
(I3
S'|'
p4882
NNNI9
I1
I0
tp4883
bS'virginica'
p4884
tp4885
Rp4886
sa(dp4887
g2
g3
(g4
(S'S3'
p4888
I0
I1
tp4889
Rp4890
(I3
S'|'
p4891
NNNI3
I1
I0
tp4892
bS'6.0'
p4893
tp4894
Rp4895
sg13
g3
(g4
(S'S3'
p4896
I0
I1
tp4897
Rp4898
(I3
S'|'
p4899
NNNI3
I1
I0
tp4900
bS'1.5'
p4901
tp4902
Rp4903
sg22
g3
(g4
(S'S3'
p4904
I0
I1
tp4905
Rp4906
(I3
S'|'
p4907
NNNI3
I1
I0
tp4908
bS'2.2'
p4909
tp4910
Rp4911
sg31
g3
(g4
(S'S3'
p4912
I0
I1
tp4913
Rp4914
(I3
S'|'
p4915
NNNI3
I1
I0
tp4916
bS'5.0'
p4917
tp4918
Rp4919
sg40
g3
(g4
(S'S9'
p4920
I0
I1
tp4921
Rp4922
(I3
S'|'
p4923
NNNI9
I1
I0
tp4924
bS'virginica'
p4925
tp4926
Rp4927
sa(dp4928
g2
g3
(g4
(S'S3'
p4929
I0
I1
tp4930
Rp4931
(I3
S'|'
p4932
NNNI3
I1
I0
tp4933
bS'6.9'
p4934
tp4935
Rp4936
sg13
g3
(g4
(S'S3'
p4937
I0
I1
tp4938
Rp4939
(I3
S'|'
p4940
NNNI3
I1
I0
tp4941
bS'2.3'
p4942
tp4943
Rp4944
sg22
g3
(g4
(S'S3'
p4945
I0
I1
tp4946
Rp4947
(I3
S'|'
p4948
NNNI3
I1
I0
tp4949
bS'3.2'
p4950
tp4951
Rp4952
sg31
g3
(g4
(S'S3'
p4953
I0
I1
tp4954
Rp4955
(I3
S'|'
p4956
NNNI3
I1
I0
tp4957
bS'5.7'
p4958
tp4959
Rp4960
sg40
g3
(g4
(S'S9'
p4961
I0
I1
tp4962
Rp4963
(I3
S'|'
p4964
NNNI9
I1
I0
tp4965
bS'virginica'
p4966
tp4967
Rp4968
sa(dp4969
g2
g3
(g4
(S'S3'
p4970
I0
I1
tp4971
Rp4972
(I3
S'|'
p4973
NNNI3
I1
I0
tp4974
bS'5.6'
p4975
tp4976
Rp4977
sg13
g3
(g4
(S'S3'
p4978
I0
I1
tp4979
Rp4980
(I3
S'|'
p4981
NNNI3
I1
I0
tp4982
bS'2.0'
p4983
tp4984
Rp4985
sg22
g3
(g4
(S'S3'
p4986
I0
I1
tp4987
Rp4988
(I3
S'|'
p4989
NNNI3
I1
I0
tp4990
bS'2.8'
p4991
tp4992
Rp4993
sg31
g3
(g4
(S'S3'
p4994
I0
I1
tp4995
Rp4996
(I3
S'|'
p4997
NNNI3
I1
I0
tp4998
bS'4.9'
p4999
tp5000
Rp5001
sg40
g3
(g4
(S'S9'
p5002
I0
I1
tp5003
Rp5004
(I3
S'|'
p5005
NNNI9
I1
I0
tp5006
bS'virginica'
p5007
tp5008
Rp5009
sa(dp5010
g2
g3
(g4
(S'S3'
p5011
I0
I1
tp5012
Rp5013
(I3
S'|'
p5014
NNNI3
I1
I0
tp5015
bS'7.7'
p5016
tp5017
Rp5018
sg13
g3
(g4
(S'S3'
p5019
I0
I1
tp5020
Rp5021
(I3
S'|'
p5022
NNNI3
I1
I0
tp5023
bS'2.0'
p5024
tp5025
Rp5026
sg22
g3
(g4
(S'S3'
p5027
I0
I1
tp5028
Rp5029
(I3
S'|'
p5030
NNNI3
I1
I0
tp5031
bS'2.8'
p5032
tp5033
Rp5034
sg31
g3
(g4
(S'S3'
p5035
I0
I1
tp5036
Rp5037
(I3
S'|'
p5038
NNNI3
I1
I0
tp5039
bS'6.7'
p5040
tp5041
Rp5042
sg40
g3
(g4
(S'S9'
p5043
I0
I1
tp5044
Rp5045
(I3
S'|'
p5046
NNNI9
I1
I0
tp5047
bS'virginica'
p5048
tp5049
Rp5050
sa(dp5051
g2
g3
(g4
(S'S3'
p5052
I0
I1
tp5053
Rp5054
(I3
S'|'
p5055
NNNI3
I1
I0
tp5056
bS'6.3'
p5057
tp5058
Rp5059
sg13
g3
(g4
(S'S3'
p5060
I0
I1
tp5061
Rp5062
(I3
S'|'
p5063
NNNI3
I1
I0
tp5064
bS'1.8'
p5065
tp5066
Rp5067
sg22
g3
(g4
(S'S3'
p5068
I0
I1
tp5069
Rp5070
(I3
S'|'
p5071
NNNI3
I1
I0
tp5072
bS'2.7'
p5073
tp5074
Rp5075
sg31
g3
(g4
(S'S3'
p5076
I0
I1
tp5077
Rp5078
(I3
S'|'
p5079
NNNI3
I1
I0
tp5080
bS'4.9'
p5081
tp5082
Rp5083
sg40
g3
(g4
(S'S9'
p5084
I0
I1
tp5085
Rp5086
(I3
S'|'
p5087
NNNI9
I1
I0
tp5088
bS'virginica'
p5089
tp5090
Rp5091
sa(dp5092
g2
g3
(g4
(S'S3'
p5093
I0
I1
tp5094
Rp5095
(I3
S'|'
p5096
NNNI3
I1
I0
tp5097
bS'6.7'
p5098
tp5099
Rp5100
sg13
g3
(g4
(S'S3'
p5101
I0
I1
tp5102
Rp5103
(I3
S'|'
p5104
NNNI3
I1
I0
tp5105
bS'2.1'
p5106
tp5107
Rp5108
sg22
g3
(g4
(S'S3'
p5109
I0
I1
tp5110
Rp5111
(I3
S'|'
p5112
NNNI3
I1
I0
tp5113
bS'3.3'
p5114
tp5115
Rp5116
sg31
g3
(g4
(S'S3'
p5117
I0
I1
tp5118
Rp5119
(I3
S'|'
p5120
NNNI3
I1
I0
tp5121
bS'5.7'
p5122
tp5123
Rp5124
sg40
g3
(g4
(S'S9'
p5125
I0
I1
tp5126
Rp5127
(I3
S'|'
p5128
NNNI9
I1
I0
tp5129
bS'virginica'
p5130
tp5131
Rp5132
sa(dp5133
g2
g3
(g4
(S'S3'
p5134
I0
I1
tp5135
Rp5136
(I3
S'|'
p5137
NNNI3
I1
I0
tp5138
bS'7.2'
p5139
tp5140
Rp5141
sg13
g3
(g4
(S'S3'
p5142
I0
I1
tp5143
Rp5144
(I3
S'|'
p5145
NNNI3
I1
I0
tp5146
bS'1.8'
p5147
tp5148
Rp5149
sg22
g3
(g4
(S'S3'
p5150
I0
I1
tp5151
Rp5152
(I3
S'|'
p5153
NNNI3
I1
I0
tp5154
bS'3.2'
p5155
tp5156
Rp5157
sg31
g3
(g4
(S'S3'
p5158
I0
I1
tp5159
Rp5160
(I3
S'|'
p5161
NNNI3
I1
I0
tp5162
bS'6.0'
p5163
tp5164
Rp5165
sg40
g3
(g4
(S'S9'
p5166
I0
I1
tp5167
Rp5168
(I3
S'|'
p5169
NNNI9
I1
I0
tp5170
bS'virginica'
p5171
tp5172
Rp5173
sa(dp5174
g2
g3
(g4
(S'S3'
p5175
I0
I1
tp5176
Rp5177
(I3
S'|'
p5178
NNNI3
I1
I0
tp5179
bS'6.2'
p5180
tp5181
Rp5182
sg13
g3
(g4
(S'S3'
p5183
I0
I1
tp5184
Rp5185
(I3
S'|'
p5186
NNNI3
I1
I0
tp5187
bS'1.8'
p5188
tp5189
Rp5190
sg22
g3
(g4
(S'S3'
p5191
I0
I1
tp5192
Rp5193
(I3
S'|'
p5194
NNNI3
I1
I0
tp5195
bS'2.8'
p5196
tp5197
Rp5198
sg31
g3
(g4
(S'S3'
p5199
I0
I1
tp5200
Rp5201
(I3
S'|'
p5202
NNNI3
I1
I0
tp5203
bS'4.8'
p5204
tp5205
Rp5206
sg40
g3
(g4
(S'S9'
p5207
I0
I1
tp5208
Rp5209
(I3
S'|'
p5210
NNNI9
I1
I0
tp5211
bS'virginica'
p5212
tp5213
Rp5214
sa(dp5215
g2
g3
(g4
(S'S3'
p5216
I0
I1
tp5217
Rp5218
(I3
S'|'
p5219
NNNI3
I1
I0
tp5220
bS'6.1'
p5221
tp5222
Rp5223
sg13
g3
(g4
(S'S3'
p5224
I0
I1
tp5225
Rp5226
(I3
S'|'
p5227
NNNI3
I1
I0
tp5228
bS'1.8'
p5229
tp5230
Rp5231
sg22
g3
(g4
(S'S3'
p5232
I0
I1
tp5233
Rp5234
(I3
S'|'
p5235
NNNI3
I1
I0
tp5236
bS'3.0'
p5237
tp5238
Rp5239
sg31
g3
(g4
(S'S3'
p5240
I0
I1
tp5241
Rp5242
(I3
S'|'
p5243
NNNI3
I1
I0
tp5244
bS'4.9'
p5245
tp5246
Rp5247
sg40
g3
(g4
(S'S9'
p5248
I0
I1
tp5249
Rp5250
(I3
S'|'
p5251
NNNI9
I1
I0
tp5252
bS'virginica'
p5253
tp5254
Rp5255
sa(dp5256
g2
g3
(g4
(S'S3'
p5257
I0
I1
tp5258
Rp5259
(I3
S'|'
p5260
NNNI3
I1
I0
tp5261
bS'6.4'
p5262
tp5263
Rp5264
sg13
g3
(g4
(S'S3'
p5265
I0
I1
tp5266
Rp5267
(I3
S'|'
p5268
NNNI3
I1
I0
tp5269
bS'2.1'
p5270
tp5271
Rp5272
sg22
g3
(g4
(S'S3'
p5273
I0
I1
tp5274
Rp5275
(I3
S'|'
p5276
NNNI3
I1
I0
tp5277
bS'2.8'
p5278
tp5279
Rp5280
sg31
g3
(g4
(S'S3'
p5281
I0
I1
tp5282
Rp5283
(I3
S'|'
p5284
NNNI3
I1
I0
tp5285
bS'5.6'
p5286
tp5287
Rp5288
sg40
g3
(g4
(S'S9'
p5289
I0
I1
tp5290
Rp5291
(I3
S'|'
p5292
NNNI9
I1
I0
tp5293
bS'virginica'
p5294
tp5295
Rp5296
sa(dp5297
g2
g3
(g4
(S'S3'
p5298
I0
I1
tp5299
Rp5300
(I3
S'|'
p5301
NNNI3
I1
I0
tp5302
bS'7.2'
p5303
tp5304
Rp5305
sg13
g3
(g4
(S'S3'
p5306
I0
I1
tp5307
Rp5308
(I3
S'|'
p5309
NNNI3
I1
I0
tp5310
bS'1.6'
p5311
tp5312
Rp5313
sg22
g3
(g4
(S'S3'
p5314
I0
I1
tp5315
Rp5316
(I3
S'|'
p5317
NNNI3
I1
I0
tp5318
bS'3.0'
p5319
tp5320
Rp5321
sg31
g3
(g4
(S'S3'
p5322
I0
I1
tp5323
Rp5324
(I3
S'|'
p5325
NNNI3
I1
I0
tp5326
bS'5.8'
p5327
tp5328
Rp5329
sg40
g3
(g4
(S'S9'
p5330
I0
I1
tp5331
Rp5332
(I3
S'|'
p5333
NNNI9
I1
I0
tp5334
bS'virginica'
p5335
tp5336
Rp5337
sa(dp5338
g2
g3
(g4
(S'S3'
p5339
I0
I1
tp5340
Rp5341
(I3
S'|'
p5342
NNNI3
I1
I0
tp5343
bS'7.4'
p5344
tp5345
Rp5346
sg13
g3
(g4
(S'S3'
p5347
I0
I1
tp5348
Rp5349
(I3
S'|'
p5350
NNNI3
I1
I0
tp5351
bS'1.9'
p5352
tp5353
Rp5354
sg22
g3
(g4
(S'S3'
p5355
I0
I1
tp5356
Rp5357
(I3
S'|'
p5358
NNNI3
I1
I0
tp5359
bS'2.8'
p5360
tp5361
Rp5362
sg31
g3
(g4
(S'S3'
p5363
I0
I1
tp5364
Rp5365
(I3
S'|'
p5366
NNNI3
I1
I0
tp5367
bS'6.1'
p5368
tp5369
Rp5370
sg40
g3
(g4
(S'S9'
p5371
I0
I1
tp5372
Rp5373
(I3
S'|'
p5374
NNNI9
I1
I0
tp5375
bS'virginica'
p5376
tp5377
Rp5378
sa(dp5379
g2
g3
(g4
(S'S3'
p5380
I0
I1
tp5381
Rp5382
(I3
S'|'
p5383
NNNI3
I1
I0
tp5384
bS'7.9'
p5385
tp5386
Rp5387
sg13
g3
(g4
(S'S3'
p5388
I0
I1
tp5389
Rp5390
(I3
S'|'
p5391
NNNI3
I1
I0
tp5392
bS'2.0'
p5393
tp5394
Rp5395
sg22
g3
(g4
(S'S3'
p5396
I0
I1
tp5397
Rp5398
(I3
S'|'
p5399
NNNI3
I1
I0
tp5400
bS'3.8'
p5401
tp5402
Rp5403
sg31
g3
(g4
(S'S3'
p5404
I0
I1
tp5405
Rp5406
(I3
S'|'
p5407
NNNI3
I1
I0
tp5408
bS'6.4'
p5409
tp5410
Rp5411
sg40
g3
(g4
(S'S9'
p5412
I0
I1
tp5413
Rp5414
(I3
S'|'
p5415
NNNI9
I1
I0
tp5416
bS'virginica'
p5417
tp5418
Rp5419
sa(dp5420
g2
g3
(g4
(S'S3'
p5421
I0
I1
tp5422
Rp5423
(I3
S'|'
p5424
NNNI3
I1
I0
tp5425
bS'6.4'
p5426
tp5427
Rp5428
sg13
g3
(g4
(S'S3'
p5429
I0
I1
tp5430
Rp5431
(I3
S'|'
p5432
NNNI3
I1
I0
tp5433
bS'2.2'
p5434
tp5435
Rp5436
sg22
g3
(g4
(S'S3'
p5437
I0
I1
tp5438
Rp5439
(I3
S'|'
p5440
NNNI3
I1
I0
tp5441
bS'2.8'
p5442
tp5443
Rp5444
sg31
g3
(g4
(S'S3'
p5445
I0
I1
tp5446
Rp5447
(I3
S'|'
p5448
NNNI3
I1
I0
tp5449
bS'5.6'
p5450
tp5451
Rp5452
sg40
g3
(g4
(S'S9'
p5453
I0
I1
tp5454
Rp5455
(I3
S'|'
p5456
NNNI9
I1
I0
tp5457
bS'virginica'
p5458
tp5459
Rp5460
sa(dp5461
g2
g3
(g4
(S'S3'
p5462
I0
I1
tp5463
Rp5464
(I3
S'|'
p5465
NNNI3
I1
I0
tp5466
bS'6.3'
p5467
tp5468
Rp5469
sg13
g3
(g4
(S'S3'
p5470
I0
I1
tp5471
Rp5472
(I3
S'|'
p5473
NNNI3
I1
I0
tp5474
bS'1.5'
p5475
tp5476
Rp5477
sg22
g3
(g4
(S'S3'
p5478
I0
I1
tp5479
Rp5480
(I3
S'|'
p5481
NNNI3
I1
I0
tp5482
bS'2.8'
p5483
tp5484
Rp5485
sg31
g3
(g4
(S'S3'
p5486
I0
I1
tp5487
Rp5488
(I3
S'|'
p5489
NNNI3
I1
I0
tp5490
bS'5.1'
p5491
tp5492
Rp5493
sg40
g3
(g4
(S'S9'
p5494
I0
I1
tp5495
Rp5496
(I3
S'|'
p5497
NNNI9
I1
I0
tp5498
bS'virginica'
p5499
tp5500
Rp5501
sa(dp5502
g2
g3
(g4
(S'S3'
p5503
I0
I1
tp5504
Rp5505
(I3
S'|'
p5506
NNNI3
I1
I0
tp5507
bS'6.1'
p5508
tp5509
Rp5510
sg13
g3
(g4
(S'S3'
p5511
I0
I1
tp5512
Rp5513
(I3
S'|'
p5514
NNNI3
I1
I0
tp5515
bS'1.4'
p5516
tp5517
Rp5518
sg22
g3
(g4
(S'S3'
p5519
I0
I1
tp5520
Rp5521
(I3
S'|'
p5522
NNNI3
I1
I0
tp5523
bS'2.6'
p5524
tp5525
Rp5526
sg31
g3
(g4
(S'S3'
p5527
I0
I1
tp5528
Rp5529
(I3
S'|'
p5530
NNNI3
I1
I0
tp5531
bS'5.6'
p5532
tp5533
Rp5534
sg40
g3
(g4
(S'S9'
p5535
I0
I1
tp5536
Rp5537
(I3
S'|'
p5538
NNNI9
I1
I0
tp5539
bS'virginica'
p5540
tp5541
Rp5542
sa(dp5543
g2
g3
(g4
(S'S3'
p5544
I0
I1
tp5545
Rp5546
(I3
S'|'
p5547
NNNI3
I1
I0
tp5548
bS'7.7'
p5549
tp5550
Rp5551
sg13
g3
(g4
(S'S3'
p5552
I0
I1
tp5553
Rp5554
(I3
S'|'
p5555
NNNI3
I1
I0
tp5556
bS'2.3'
p5557
tp5558
Rp5559
sg22
g3
(g4
(S'S3'
p5560
I0
I1
tp5561
Rp5562
(I3
S'|'
p5563
NNNI3
I1
I0
tp5564
bS'3.0'
p5565
tp5566
Rp5567
sg31
g3
(g4
(S'S3'
p5568
I0
I1
tp5569
Rp5570
(I3
S'|'
p5571
NNNI3
I1
I0
tp5572
bS'6.1'
p5573
tp5574
Rp5575
sg40
g3
(g4
(S'S9'
p5576
I0
I1
tp5577
Rp5578
(I3
S'|'
p5579
NNNI9
I1
I0
tp5580
bS'virginica'
p5581
tp5582
Rp5583
sa(dp5584
g2
g3
(g4
(S'S3'
p5585
I0
I1
tp5586
Rp5587
(I3
S'|'
p5588
NNNI3
I1
I0
tp5589
bS'6.3'
p5590
tp5591
Rp5592
sg13
g3
(g4
(S'S3'
p5593
I0
I1
tp5594
Rp5595
(I3
S'|'
p5596
NNNI3
I1
I0
tp5597
bS'2.4'
p5598
tp5599
Rp5600
sg22
g3
(g4
(S'S3'
p5601
I0
I1
tp5602
Rp5603
(I3
S'|'
p5604
NNNI3
I1
I0
tp5605
bS'3.4'
p5606
tp5607
Rp5608
sg31
g3
(g4
(S'S3'
p5609
I0
I1
tp5610
Rp5611
(I3
S'|'
p5612
NNNI3
I1
I0
tp5613
bS'5.6'
p5614
tp5615
Rp5616
sg40
g3
(g4
(S'S9'
p5617
I0
I1
tp5618
Rp5619
(I3
S'|'
p5620
NNNI9
I1
I0
tp5621
bS'virginica'
p5622
tp5623
Rp5624
sa(dp5625
g2
g3
(g4
(S'S3'
p5626
I0
I1
tp5627
Rp5628
(I3
S'|'
p5629
NNNI3
I1
I0
tp5630
bS'6.4'
p5631
tp5632
Rp5633
sg13
g3
(g4
(S'S3'
p5634
I0
I1
tp5635
Rp5636
(I3
S'|'
p5637
NNNI3
I1
I0
tp5638
bS'1.8'
p5639
tp5640
Rp5641
sg22
g3
(g4
(S'S3'
p5642
I0
I1
tp5643
Rp5644
(I3
S'|'
p5645
NNNI3
I1
I0
tp5646
bS'3.1'
p5647
tp5648
Rp5649
sg31
g3
(g4
(S'S3'
p5650
I0
I1
tp5651
Rp5652
(I3
S'|'
p5653
NNNI3
I1
I0
tp5654
bS'5.5'
p5655
tp5656
Rp5657
sg40
g3
(g4
(S'S9'
p5658
I0
I1
tp5659
Rp5660
(I3
S'|'
p5661
NNNI9
I1
I0
tp5662
bS'virginica'
p5663
tp5664
Rp5665
sa(dp5666
g2
g3
(g4
(S'S3'
p5667
I0
I1
tp5668
Rp5669
(I3
S'|'
p5670
NNNI3
I1
I0
tp5671
bS'6.0'
p5672
tp5673
Rp5674
sg13
g3
(g4
(S'S3'
p5675
I0
I1
tp5676
Rp5677
(I3
S'|'
p5678
NNNI3
I1
I0
tp5679
bS'1.8'
p5680
tp5681
Rp5682
sg22
g3
(g4
(S'S3'
p5683
I0
I1
tp5684
Rp5685
(I3
S'|'
p5686
NNNI3
I1
I0
tp5687
bS'3.0'
p5688
tp5689
Rp5690
sg31
g3
(g4
(S'S3'
p5691
I0
I1
tp5692
Rp5693
(I3
S'|'
p5694
NNNI3
I1
I0
tp5695
bS'4.8'
p5696
tp5697
Rp5698
sg40
g3
(g4
(S'S9'
p5699
I0
I1
tp5700
Rp5701
(I3
S'|'
p5702
NNNI9
I1
I0
tp5703
bS'virginica'
p5704
tp5705
Rp5706
sa(dp5707
g2
g3
(g4
(S'S3'
p5708
I0
I1
tp5709
Rp5710
(I3
S'|'
p5711
NNNI3
I1
I0
tp5712
bS'6.9'
p5713
tp5714
Rp5715
sg13
g3
(g4
(S'S3'
p5716
I0
I1
tp5717
Rp5718
(I3
S'|'
p5719
NNNI3
I1
I0
tp5720
bS'2.1'
p5721
tp5722
Rp5723
sg22
g3
(g4
(S'S3'
p5724
I0
I1
tp5725
Rp5726
(I3
S'|'
p5727
NNNI3
I1
I0
tp5728
bS'3.1'
p5729
tp5730
Rp5731
sg31
g3
(g4
(S'S3'
p5732
I0
I1
tp5733
Rp5734
(I3
S'|'
p5735
NNNI3
I1
I0
tp5736
bS'5.4'
p5737
tp5738
Rp5739
sg40
g3
(g4
(S'S9'
p5740
I0
I1
tp5741
Rp5742
(I3
S'|'
p5743
NNNI9
I1
I0
tp5744
bS'virginica'
p5745
tp5746
Rp5747
sa(dp5748
g2
g3
(g4
(S'S3'
p5749
I0
I1
tp5750
Rp5751
(I3
S'|'
p5752
NNNI3
I1
I0
tp5753
bS'6.7'
p5754
tp5755
Rp5756
sg13
g3
(g4
(S'S3'
p5757
I0
I1
tp5758
Rp5759
(I3
S'|'
p5760
NNNI3
I1
I0
tp5761
bS'2.4'
p5762
tp5763
Rp5764
sg22
g3
(g4
(S'S3'
p5765
I0
I1
tp5766
Rp5767
(I3
S'|'
p5768
NNNI3
I1
I0
tp5769
bS'3.1'
p5770
tp5771
Rp5772
sg31
g3
(g4
(S'S3'
p5773
I0
I1
tp5774
Rp5775
(I3
S'|'
p5776
NNNI3
I1
I0
tp5777
bS'5.6'
p5778
tp5779
Rp5780
sg40
g3
(g4
(S'S9'
p5781
I0
I1
tp5782
Rp5783
(I3
S'|'
p5784
NNNI9
I1
I0
tp5785
bS'virginica'
p5786
tp5787
Rp5788
sa(dp5789
g2
g3
(g4
(S'S3'
p5790
I0
I1
tp5791
Rp5792
(I3
S'|'
p5793
NNNI3
I1
I0
tp5794
bS'6.9'
p5795
tp5796
Rp5797
sg13
g3
(g4
(S'S3'
p5798
I0
I1
tp5799
Rp5800
(I3
S'|'
p5801
NNNI3
I1
I0
tp5802
bS'2.3'
p5803
tp5804
Rp5805
sg22
g3
(g4
(S'S3'
p5806
I0
I1
tp5807
Rp5808
(I3
S'|'
p5809
NNNI3
I1
I0
tp5810
bS'3.1'
p5811
tp5812
Rp5813
sg31
g3
(g4
(S'S3'
p5814
I0
I1
tp5815
Rp5816
(I3
S'|'
p5817
NNNI3
I1
I0
tp5818
bS'5.1'
p5819
tp5820
Rp5821
sg40
g3
(g4
(S'S9'
p5822
I0
I1
tp5823
Rp5824
(I3
S'|'
p5825
NNNI9
I1
I0
tp5826
bS'virginica'
p5827
tp5828
Rp5829
sa(dp5830
g2
g3
(g4
(S'S3'
p5831
I0
I1
tp5832
Rp5833
(I3
S'|'
p5834
NNNI3
I1
I0
tp5835
bS'5.8'
p5836
tp5837
Rp5838
sg13
g3
(g4
(S'S3'
p5839
I0
I1
tp5840
Rp5841
(I3
S'|'
p5842
NNNI3
I1
I0
tp5843
bS'1.9'
p5844
tp5845
Rp5846
sg22
g3
(g4
(S'S3'
p5847
I0
I1
tp5848
Rp5849
(I3
S'|'
p5850
NNNI3
I1
I0
tp5851
bS'2.7'
p5852
tp5853
Rp5854
sg31
g3
(g4
(S'S3'
p5855
I0
I1
tp5856
Rp5857
(I3
S'|'
p5858
NNNI3
I1
I0
tp5859
bS'5.1'
p5860
tp5861
Rp5862
sg40
g3
(g4
(S'S9'
p5863
I0
I1
tp5864
Rp5865
(I3
S'|'
p5866
NNNI9
I1
I0
tp5867
bS'virginica'
p5868
tp5869
Rp5870
sa(dp5871
g2
g3
(g4
(S'S3'
p5872
I0
I1
tp5873
Rp5874
(I3
S'|'
p5875
NNNI3
I1
I0
tp5876
bS'6.8'
p5877
tp5878
Rp5879
sg13
g3
(g4
(S'S3'
p5880
I0
I1
tp5881
Rp5882
(I3
S'|'
p5883
NNNI3
I1
I0
tp5884
bS'2.3'
p5885
tp5886
Rp5887
sg22
g3
(g4
(S'S3'
p5888
I0
I1
tp5889
Rp5890
(I3
S'|'
p5891
NNNI3
I1
I0
tp5892
bS'3.2'
p5893
tp5894
Rp5895
sg31
g3
(g4
(S'S3'
p5896
I0
I1
tp5897
Rp5898
(I3
S'|'
p5899
NNNI3
I1
I0
tp5900
bS'5.9'
p5901
tp5902
Rp5903
sg40
g3
(g4
(S'S9'
p5904
I0
I1
tp5905
Rp5906
(I3
S'|'
p5907
NNNI9
I1
I0
tp5908
bS'virginica'
p5909
tp5910
Rp5911
sa(dp5912
g2
g3
(g4
(S'S3'
p5913
I0
I1
tp5914
Rp5915
(I3
S'|'
p5916
NNNI3
I1
I0
tp5917
bS'6.7'
p5918
tp5919
Rp5920
sg13
g3
(g4
(S'S3'
p5921
I0
I1
tp5922
Rp5923
(I3
S'|'
p5924
NNNI3
I1
I0
tp5925
bS'2.5'
p5926
tp5927
Rp5928
sg22
g3
(g4
(S'S3'
p5929
I0
I1
tp5930
Rp5931
(I3
S'|'
p5932
NNNI3
I1
I0
tp5933
bS'3.3'
p5934
tp5935
Rp5936
sg31
g3
(g4
(S'S3'
p5937
I0
I1
tp5938
Rp5939
(I3
S'|'
p5940
NNNI3
I1
I0
tp5941
bS'5.7'
p5942
tp5943
Rp5944
sg40
g3
(g4
(S'S9'
p5945
I0
I1
tp5946
Rp5947
(I3
S'|'
p5948
NNNI9
I1
I0
tp5949
bS'virginica'
p5950
tp5951
Rp5952
sa(dp5953
g2
g3
(g4
(S'S3'
p5954
I0
I1
tp5955
Rp5956
(I3
S'|'
p5957
NNNI3
I1
I0
tp5958
bS'6.7'
p5959
tp5960
Rp5961
sg13
g3
(g4
(S'S3'
p5962
I0
I1
tp5963
Rp5964
(I3
S'|'
p5965
NNNI3
I1
I0
tp5966
bS'2.3'
p5967
tp5968
Rp5969
sg22
g3
(g4
(S'S3'
p5970
I0
I1
tp5971
Rp5972
(I3
S'|'
p5973
NNNI3
I1
I0
tp5974
bS'3.0'
p5975
tp5976
Rp5977
sg31
g3
(g4
(S'S3'
p5978
I0
I1
tp5979
Rp5980
(I3
S'|'
p5981
NNNI3
I1
I0
tp5982
bS'5.2'
p5983
tp5984
Rp5985
sg40
g3
(g4
(S'S9'
p5986
I0
I1
tp5987
Rp5988
(I3
S'|'
p5989
NNNI9
I1
I0
tp5990
bS'virginica'
p5991
tp5992
Rp5993
sa(dp5994
g2
g3
(g4
(S'S3'
p5995
I0
I1
tp5996
Rp5997
(I3
S'|'
p5998
NNNI3
I1
I0
tp5999
bS'6.3'
p6000
tp6001
Rp6002
sg13
g3
(g4
(S'S3'
p6003
I0
I1
tp6004
Rp6005
(I3
S'|'
p6006
NNNI3
I1
I0
tp6007
bS'1.9'
p6008
tp6009
Rp6010
sg22
g3
(g4
(S'S3'
p6011
I0
I1
tp6012
Rp6013
(I3
S'|'
p6014
NNNI3
I1
I0
tp6015
bS'2.5'
p6016
tp6017
Rp6018
sg31
g3
(g4
(S'S3'
p6019
I0
I1
tp6020
Rp6021
(I3
S'|'
p6022
NNNI3
I1
I0
tp6023
bS'5.0'
p6024
tp6025
Rp6026
sg40
g3
(g4
(S'S9'
p6027
I0
I1
tp6028
Rp6029
(I3
S'|'
p6030
NNNI9
I1
I0
tp6031
bS'virginica'
p6032
tp6033
Rp6034
sa(dp6035
g2
g3
(g4
(S'S3'
p6036
I0
I1
tp6037
Rp6038
(I3
S'|'
p6039
NNNI3
I1
I0
tp6040
bS'6.5'
p6041
tp6042
Rp6043
sg13
g3
(g4
(S'S3'
p6044
I0
I1
tp6045
Rp6046
(I3
S'|'
p6047
NNNI3
I1
I0
tp6048
bS'2.0'
p6049
tp6050
Rp6051
sg22
g3
(g4
(S'S3'
p6052
I0
I1
tp6053
Rp6054
(I3
S'|'
p6055
NNNI3
I1
I0
tp6056
bS'3.0'
p6057
tp6058
Rp6059
sg31
g3
(g4
(S'S3'
p6060
I0
I1
tp6061
Rp6062
(I3
S'|'
p6063
NNNI3
I1
I0
tp6064
bS'5.2'
p6065
tp6066
Rp6067
sg40
g3
(g4
(S'S9'
p6068
I0
I1
tp6069
Rp6070
(I3
S'|'
p6071
NNNI9
I1
I0
tp6072
bS'virginica'
p6073
tp6074
Rp6075
sa(dp6076
g2
g3
(g4
(S'S3'
p6077
I0
I1
tp6078
Rp6079
(I3
S'|'
p6080
NNNI3
I1
I0
tp6081
bS'6.2'
p6082
tp6083
Rp6084
sg13
g3
(g4
(S'S3'
p6085
I0
I1
tp6086
Rp6087
(I3
S'|'
p6088
NNNI3
I1
I0
tp6089
bS'2.3'
p6090
tp6091
Rp6092
sg22
g3
(g4
(S'S3'
p6093
I0
I1
tp6094
Rp6095
(I3
S'|'
p6096
NNNI3
I1
I0
tp6097
bS'3.4'
p6098
tp6099
Rp6100
sg31
g3
(g4
(S'S3'
p6101
I0
I1
tp6102
Rp6103
(I3
S'|'
p6104
NNNI3
I1
I0
tp6105
bS'5.4'
p6106
tp6107
Rp6108
sg40
g3
(g4
(S'S9'
p6109
I0
I1
tp6110
Rp6111
(I3
S'|'
p6112
NNNI9
I1
I0
tp6113
bS'virginica'
p6114
tp6115
Rp6116
sa(dp6117
g2
g3
(g4
(S'S3'
p6118
I0
I1
tp6119
Rp6120
(I3
S'|'
p6121
NNNI3
I1
I0
tp6122
bS'5.9'
p6123
tp6124
Rp6125
sg13
g3
(g4
(S'S3'
p6126
I0
I1
tp6127
Rp6128
(I3
S'|'
p6129
NNNI3
I1
I0
tp6130
bS'1.8'
p6131
tp6132
Rp6133
sg22
g3
(g4
(S'S3'
p6134
I0
I1
tp6135
Rp6136
(I3
S'|'
p6137
NNNI3
I1
I0
tp6138
bS'3.0'
p6139
tp6140
Rp6141
sg31
g3
(g4
(S'S3'
p6142
I0
I1
tp6143
Rp6144
(I3
S'|'
p6145
NNNI3
I1
I0
tp6146
bS'5.1'
p6147
tp6148
Rp6149
sg40
g3
(g4
(S'S9'
p6150
I0
I1
tp6151
Rp6152
(I3
S'|'
p6153
NNNI9
I1
I0
tp6154
bS'virginica'
p6155
tp6156
Rp6157
sa.